ARM GAS  C:\Temp\cc53cUQO.s 			page 1


   1              		.cpu cortex-m4
   2              		.arch armv7e-m
   3              		.fpu fpv4-sp-d16
   4              		.eabi_attribute 27, 1
   5              		.eabi_attribute 28, 1
   6              		.eabi_attribute 20, 1
   7              		.eabi_attribute 21, 1
   8              		.eabi_attribute 23, 3
   9              		.eabi_attribute 24, 1
  10              		.eabi_attribute 25, 1
  11              		.eabi_attribute 26, 1
  12              		.eabi_attribute 30, 1
  13              		.eabi_attribute 34, 1
  14              		.eabi_attribute 18, 4
  15              		.file	"main.c"
  16              		.text
  17              	.Ltext0:
  18              		.cfi_sections	.debug_frame
  19              		.file 1 "Core/Src/main.c"
  20              		.section	.text.short_delay,"ax",%progbits
  21              		.align	1
  22              		.global	short_delay
  23              		.syntax unified
  24              		.thumb
  25              		.thumb_func
  27              	short_delay:
  28              	.LFB133:
   1:Core/Src/main.c **** #include "main.h"
   2:Core/Src/main.c **** #include "adc.h"
   3:Core/Src/main.c **** #include "usb_device.h"
   4:Core/Src/main.c **** #include "gpio.h"
   5:Core/Src/main.c **** #include "usbd_hid.h"
   6:Core/Src/main.c **** #include <stdint.h>
   7:Core/Src/main.c **** #include <stdbool.h>
   8:Core/Src/main.c **** #include <string.h>
   9:Core/Src/main.c **** #include <stdlib.h>
  10:Core/Src/main.c **** 
  11:Core/Src/main.c **** #define KEY_COUNT 20
  12:Core/Src/main.c **** #define RT_ACTUATION_DIST  20   
  13:Core/Src/main.c **** #define RT_RELEASE_DIST    20   
  14:Core/Src/main.c **** #define STATIC_AP_THRESHOLD 50 
  15:Core/Src/main.c **** 
  16:Core/Src/main.c **** // --- ボタンID定義 ---
  17:Core/Src/main.c **** #define ID_UP 0
  18:Core/Src/main.c **** #define ID_DOWN 1
  19:Core/Src/main.c **** #define ID_LEFT 2
  20:Core/Src/main.c **** #define ID_RIGHT 3
  21:Core/Src/main.c **** #define ID_BTN1 4   
  22:Core/Src/main.c **** #define ID_BTN2 5   
  23:Core/Src/main.c **** #define ID_BTN3 6   
  24:Core/Src/main.c **** #define ID_BTN4 7   
  25:Core/Src/main.c **** #define ID_BTN5 8   
  26:Core/Src/main.c **** #define ID_BTN6 9   
  27:Core/Src/main.c **** #define ID_BTN7 10  
  28:Core/Src/main.c **** #define ID_BTN8 11  
  29:Core/Src/main.c **** #define ID_BTN9 12  
  30:Core/Src/main.c **** #define ID_BTN10 13  
ARM GAS  C:\Temp\cc53cUQO.s 			page 2


  31:Core/Src/main.c **** #define ID_BTN11 14  
  32:Core/Src/main.c **** #define ID_BTN12 15  
  33:Core/Src/main.c **** #define ID_BTN13 16  
  34:Core/Src/main.c **** #define ID_BTN14 17  
  35:Core/Src/main.c **** #define ID_BTN15 18  
  36:Core/Src/main.c **** #define ID_BTN16 19  
  37:Core/Src/main.c **** 
  38:Core/Src/main.c **** // XInput定義
  39:Core/Src/main.c **** #define XINPUT_DPAD_UP    0x0001
  40:Core/Src/main.c **** #define XINPUT_DPAD_DOWN  0x0002
  41:Core/Src/main.c **** #define XINPUT_DPAD_LEFT  0x0004
  42:Core/Src/main.c **** #define XINPUT_DPAD_RIGHT 0x0008
  43:Core/Src/main.c **** #define XINPUT_START      0x0010
  44:Core/Src/main.c **** #define XINPUT_BACK       0x0020
  45:Core/Src/main.c **** #define XINPUT_LB         0x0100
  46:Core/Src/main.c **** #define XINPUT_RB         0x0200
  47:Core/Src/main.c **** #define XINPUT_BTN_A      0x1000
  48:Core/Src/main.c **** #define XINPUT_BTN_B      0x2000
  49:Core/Src/main.c **** #define XINPUT_BTN_X      0x4000
  50:Core/Src/main.c **** #define XINPUT_BTN_Y      0x8000
  51:Core/Src/main.c **** #define XINPUT_THUMB_L    0x0040
  52:Core/Src/main.c **** #define XINPUT_THUMB_R    0x0080
  53:Core/Src/main.c **** #define XINPUT_GUIDE      0x0400
  54:Core/Src/main.c **** 
  55:Core/Src/main.c **** uint8_t key_map[KEY_COUNT] = {
  56:Core/Src/main.c ****     ID_RIGHT, ID_DOWN, ID_LEFT, ID_BTN16, ID_BTN8, ID_BTN7, ID_BTN15, ID_BTN14, 
  57:Core/Src/main.c ****     ID_BTN13, ID_BTN12, ID_BTN11, ID_BTN10, ID_BTN9, ID_BTN3, ID_BTN4, ID_BTN5, 
  58:Core/Src/main.c ****     ID_BTN6, ID_BTN2, ID_UP, ID_BTN1
  59:Core/Src/main.c **** };
  60:Core/Src/main.c **** 
  61:Core/Src/main.c **** extern USBD_HandleTypeDef hUsbDeviceFS;
  62:Core/Src/main.c **** extern ADC_HandleTypeDef hadc2;
  63:Core/Src/main.c **** extern ADC_HandleTypeDef hadc3;
  64:Core/Src/main.c **** extern ADC_HandleTypeDef hadc4;
  65:Core/Src/main.c **** 
  66:Core/Src/main.c **** uint16_t adc_values[KEY_COUNT];
  67:Core/Src/main.c **** uint16_t startup_values[KEY_COUNT];
  68:Core/Src/main.c **** bool key_active[KEY_COUNT];        
  69:Core/Src/main.c **** 
  70:Core/Src/main.c **** typedef struct { uint16_t anchor; bool is_active; } rt_state_t;
  71:Core/Src/main.c **** rt_state_t key_rt_states[KEY_COUNT];
  72:Core/Src/main.c **** 
  73:Core/Src/main.c **** typedef struct __attribute__((packed)) {
  74:Core/Src/main.c ****     uint8_t msg_type; uint8_t pkt_size; uint16_t buttons; uint8_t lt; uint8_t rt;
  75:Core/Src/main.c ****     int16_t lx; int16_t ly; int16_t rx; int16_t ry; uint8_t reserved[6]; 
  76:Core/Src/main.c **** } XInputReport_t;
  77:Core/Src/main.c **** 
  78:Core/Src/main.c **** XInputReport_t current_report, prev_report;
  79:Core/Src/main.c **** 
  80:Core/Src/main.c **** // WebHID送信バッファ
  81:Core/Src/main.c **** uint8_t webhid_tx_buf[64];
  82:Core/Src/main.c **** 
  83:Core/Src/main.c **** // プロトタイプ宣言
  84:Core/Src/main.c **** void SystemClock_Config(void);
  85:Core/Src/main.c **** void Error_Handler(void);
  86:Core/Src/main.c **** void scan_all_keys_fast(uint16_t *buffer);
  87:Core/Src/main.c **** bool update_key_state_rt(int key_index, uint16_t current_raw_val);
ARM GAS  C:\Temp\cc53cUQO.s 			page 3


  88:Core/Src/main.c **** void MUX1_Select(uint8_t ch);
  89:Core/Src/main.c **** void MUX2_Select(uint8_t ch);
  90:Core/Src/main.c **** void short_delay(void);
  91:Core/Src/main.c **** uint8_t USBD_WebHID_SendReport(USBD_HandleTypeDef *pdev, uint8_t *report, uint16_t len);
  92:Core/Src/main.c **** 
  93:Core/Src/main.c **** void short_delay(void) { for(volatile int i = 0; i < 30; i++) { __NOP(); } }
  29              		.loc 1 93 24 view -0
  30              		.cfi_startproc
  31              		@ args = 0, pretend = 0, frame = 8
  32              		@ frame_needed = 0, uses_anonymous_args = 0
  33              		@ link register save eliminated.
  34 0000 82B0     		sub	sp, sp, #8
  35              	.LCFI0:
  36              		.cfi_def_cfa_offset 8
  37              		.loc 1 93 26 view .LVU1
  38              	.LBB4:
  39              		.loc 1 93 30 view .LVU2
  40              		.loc 1 93 43 is_stmt 0 view .LVU3
  41 0002 0023     		movs	r3, #0
  42 0004 0193     		str	r3, [sp, #4]
  43              		.loc 1 93 26 view .LVU4
  44 0006 03E0     		b	.L2
  45              	.L3:
  46              		.loc 1 93 65 is_stmt 1 discriminator 3 view .LVU5
  47              		.syntax unified
  48              	@ 93 "Core/Src/main.c" 1
  49 0008 00BF     		nop
  50              	@ 0 "" 2
  51              		.loc 1 93 59 discriminator 3 view .LVU6
  52              		.thumb
  53              		.syntax unified
  54 000a 019B     		ldr	r3, [sp, #4]
  55 000c 0133     		adds	r3, r3, #1
  56 000e 0193     		str	r3, [sp, #4]
  57              	.L2:
  58              		.loc 1 93 52 discriminator 1 view .LVU7
  59 0010 019B     		ldr	r3, [sp, #4]
  60 0012 1D2B     		cmp	r3, #29
  61 0014 F8DD     		ble	.L3
  62              	.LBE4:
  63              		.loc 1 93 76 is_stmt 0 view .LVU8
  64 0016 02B0     		add	sp, sp, #8
  65              	.LCFI1:
  66              		.cfi_def_cfa_offset 0
  67              		@ sp needed
  68 0018 7047     		bx	lr
  69              		.cfi_endproc
  70              	.LFE133:
  72              		.section	.text.MUX1_Select,"ax",%progbits
  73              		.align	1
  74              		.global	MUX1_Select
  75              		.syntax unified
  76              		.thumb
  77              		.thumb_func
  79              	MUX1_Select:
  80              	.LVL0:
  81              	.LFB134:
ARM GAS  C:\Temp\cc53cUQO.s 			page 4


  94:Core/Src/main.c **** 
  95:Core/Src/main.c **** void MUX1_Select(uint8_t ch) {
  82              		.loc 1 95 30 is_stmt 1 view -0
  83              		.cfi_startproc
  84              		@ args = 0, pretend = 0, frame = 0
  85              		@ frame_needed = 0, uses_anonymous_args = 0
  86              		.loc 1 95 30 is_stmt 0 view .LVU10
  87 0000 10B5     		push	{r4, lr}
  88              	.LCFI2:
  89              		.cfi_def_cfa_offset 8
  90              		.cfi_offset 4, -8
  91              		.cfi_offset 14, -4
  92 0002 0446     		mov	r4, r0
  96:Core/Src/main.c ****     HAL_GPIO_WritePin(MUX1_A_GPIO_Port, MUX1_A_Pin, (ch & 0x01) ? GPIO_PIN_SET : GPIO_PIN_RESET);
  93              		.loc 1 96 5 is_stmt 1 view .LVU11
  94 0004 00F00102 		and	r2, r0, #1
  95 0008 0121     		movs	r1, #1
  96 000a 0948     		ldr	r0, .L7
  97              	.LVL1:
  98              		.loc 1 96 5 is_stmt 0 view .LVU12
  99 000c FFF7FEFF 		bl	HAL_GPIO_WritePin
 100              	.LVL2:
  97:Core/Src/main.c ****     HAL_GPIO_WritePin(MUX1_B_GPIO_Port, MUX1_B_Pin, (ch & 0x02) ? GPIO_PIN_SET : GPIO_PIN_RESET);
 101              		.loc 1 97 5 is_stmt 1 view .LVU13
 102 0010 C4F34002 		ubfx	r2, r4, #1, #1
 103 0014 2021     		movs	r1, #32
 104 0016 4FF09040 		mov	r0, #1207959552
 105 001a FFF7FEFF 		bl	HAL_GPIO_WritePin
 106              	.LVL3:
  98:Core/Src/main.c ****     HAL_GPIO_WritePin(MUX1_C_GPIO_Port, MUX1_C_Pin, (ch & 0x04) ? GPIO_PIN_SET : GPIO_PIN_RESET);
 107              		.loc 1 98 5 view .LVU14
 108 001e C4F38002 		ubfx	r2, r4, #2, #1
 109 0022 8021     		movs	r1, #128
 110 0024 4FF09040 		mov	r0, #1207959552
 111 0028 FFF7FEFF 		bl	HAL_GPIO_WritePin
 112              	.LVL4:
  99:Core/Src/main.c **** }
 113              		.loc 1 99 1 is_stmt 0 view .LVU15
 114 002c 10BD     		pop	{r4, pc}
 115              	.LVL5:
 116              	.L8:
 117              		.loc 1 99 1 view .LVU16
 118 002e 00BF     		.align	2
 119              	.L7:
 120 0030 00040048 		.word	1207960576
 121              		.cfi_endproc
 122              	.LFE134:
 124              		.section	.text.MUX2_Select,"ax",%progbits
 125              		.align	1
 126              		.global	MUX2_Select
 127              		.syntax unified
 128              		.thumb
 129              		.thumb_func
 131              	MUX2_Select:
 132              	.LVL6:
 133              	.LFB135:
 100:Core/Src/main.c **** 
ARM GAS  C:\Temp\cc53cUQO.s 			page 5


 101:Core/Src/main.c **** void MUX2_Select(uint8_t ch) {
 134              		.loc 1 101 30 is_stmt 1 view -0
 135              		.cfi_startproc
 136              		@ args = 0, pretend = 0, frame = 0
 137              		@ frame_needed = 0, uses_anonymous_args = 0
 138              		.loc 1 101 30 is_stmt 0 view .LVU18
 139 0000 10B5     		push	{r4, lr}
 140              	.LCFI3:
 141              		.cfi_def_cfa_offset 8
 142              		.cfi_offset 4, -8
 143              		.cfi_offset 14, -4
 144 0002 0446     		mov	r4, r0
 102:Core/Src/main.c ****     HAL_GPIO_WritePin(MUX2_A_GPIO_Port, MUX2_A_Pin, (ch & 0x01) ? GPIO_PIN_SET : GPIO_PIN_RESET);
 145              		.loc 1 102 5 is_stmt 1 view .LVU19
 146 0004 00F00102 		and	r2, r0, #1
 147 0008 4FF40071 		mov	r1, #512
 148 000c 4FF09040 		mov	r0, #1207959552
 149              	.LVL7:
 150              		.loc 1 102 5 is_stmt 0 view .LVU20
 151 0010 FFF7FEFF 		bl	HAL_GPIO_WritePin
 152              	.LVL8:
 103:Core/Src/main.c ****     HAL_GPIO_WritePin(MUX2_B_GPIO_Port, MUX2_B_Pin, (ch & 0x02) ? GPIO_PIN_SET : GPIO_PIN_RESET);
 153              		.loc 1 103 5 is_stmt 1 view .LVU21
 154 0014 C4F34002 		ubfx	r2, r4, #1, #1
 155 0018 4FF48071 		mov	r1, #256
 156 001c 4FF09040 		mov	r0, #1207959552
 157 0020 FFF7FEFF 		bl	HAL_GPIO_WritePin
 158              	.LVL9:
 104:Core/Src/main.c ****     HAL_GPIO_WritePin(MUX2_C_GPIO_Port, MUX2_C_Pin, (ch & 0x04) ? GPIO_PIN_SET : GPIO_PIN_RESET);
 159              		.loc 1 104 5 view .LVU22
 160 0024 C4F38002 		ubfx	r2, r4, #2, #1
 161 0028 4FF40041 		mov	r1, #32768
 162 002c 0148     		ldr	r0, .L11
 163 002e FFF7FEFF 		bl	HAL_GPIO_WritePin
 164              	.LVL10:
 105:Core/Src/main.c **** }
 165              		.loc 1 105 1 is_stmt 0 view .LVU23
 166 0032 10BD     		pop	{r4, pc}
 167              	.LVL11:
 168              	.L12:
 169              		.loc 1 105 1 view .LVU24
 170              		.align	2
 171              	.L11:
 172 0034 00040048 		.word	1207960576
 173              		.cfi_endproc
 174              	.LFE135:
 176              		.section	.text.scan_all_keys_fast,"ax",%progbits
 177              		.align	1
 178              		.global	scan_all_keys_fast
 179              		.syntax unified
 180              		.thumb
 181              		.thumb_func
 183              	scan_all_keys_fast:
 184              	.LVL12:
 185              	.LFB136:
 106:Core/Src/main.c **** 
 107:Core/Src/main.c **** void scan_all_keys_fast(uint16_t *buffer) {
ARM GAS  C:\Temp\cc53cUQO.s 			page 6


 186              		.loc 1 107 43 is_stmt 1 view -0
 187              		.cfi_startproc
 188              		@ args = 0, pretend = 0, frame = 0
 189              		@ frame_needed = 0, uses_anonymous_args = 0
 190              		.loc 1 107 43 is_stmt 0 view .LVU26
 191 0000 70B5     		push	{r4, r5, r6, lr}
 192              	.LCFI4:
 193              		.cfi_def_cfa_offset 16
 194              		.cfi_offset 4, -16
 195              		.cfi_offset 5, -12
 196              		.cfi_offset 6, -8
 197              		.cfi_offset 14, -4
 198 0002 0646     		mov	r6, r0
 108:Core/Src/main.c ****     for (int ch = 0; ch < 8; ch++) {
 199              		.loc 1 108 5 is_stmt 1 view .LVU27
 200              	.LBB5:
 201              		.loc 1 108 10 view .LVU28
 202              	.LVL13:
 203              		.loc 1 108 14 is_stmt 0 view .LVU29
 204 0004 0024     		movs	r4, #0
 205              		.loc 1 108 5 view .LVU30
 206 0006 0AE0     		b	.L14
 207              	.LVL14:
 208              	.L15:
 109:Core/Src/main.c ****         MUX2_Select(ch); MUX1_Select(ch); short_delay(); 
 110:Core/Src/main.c ****         HAL_ADC_Start(&hadc4); HAL_ADC_Start(&hadc3); HAL_ADC_Start(&hadc2);
 111:Core/Src/main.c **** 
 112:Core/Src/main.c ****         if (HAL_ADC_PollForConversion(&hadc4, 1) == HAL_OK) buffer[ch] = HAL_ADC_GetValue(&hadc4);
 113:Core/Src/main.c ****         if (HAL_ADC_PollForConversion(&hadc3, 1) == HAL_OK) {
 209              		.loc 1 113 9 is_stmt 1 view .LVU31
 210              		.loc 1 113 13 is_stmt 0 view .LVU32
 211 0008 0121     		movs	r1, #1
 212 000a 2E48     		ldr	r0, .L32
 213 000c FFF7FEFF 		bl	HAL_ADC_PollForConversion
 214              	.LVL15:
 215              		.loc 1 113 12 discriminator 1 view .LVU33
 216 0010 30B3     		cbz	r0, .L29
 217              	.L16:
 114:Core/Src/main.c ****             uint16_t val = HAL_ADC_GetValue(&hadc3);
 115:Core/Src/main.c ****             if (ch < 4) buffer[ch + 8] = val; else if (ch == 7) buffer[12] = val; 
 116:Core/Src/main.c ****         }
 117:Core/Src/main.c ****         if (HAL_ADC_PollForConversion(&hadc2, 1) == HAL_OK) {
 218              		.loc 1 117 9 is_stmt 1 view .LVU34
 219              		.loc 1 117 13 is_stmt 0 view .LVU35
 220 0012 0121     		movs	r1, #1
 221 0014 2C48     		ldr	r0, .L32+4
 222 0016 FFF7FEFF 		bl	HAL_ADC_PollForConversion
 223              	.LVL16:
 224              		.loc 1 117 12 discriminator 1 view .LVU36
 225 001a 80B3     		cbz	r0, .L30
 226              	.L18:
 108:Core/Src/main.c ****         MUX2_Select(ch); MUX1_Select(ch); short_delay(); 
 227              		.loc 1 108 32 is_stmt 1 discriminator 2 view .LVU37
 228 001c 0134     		adds	r4, r4, #1
 229              	.LVL17:
 230              	.L14:
 108:Core/Src/main.c ****         MUX2_Select(ch); MUX1_Select(ch); short_delay(); 
ARM GAS  C:\Temp\cc53cUQO.s 			page 7


 231              		.loc 1 108 25 discriminator 1 view .LVU38
 232 001e 072C     		cmp	r4, #7
 233 0020 4EDC     		bgt	.L31
 109:Core/Src/main.c ****         MUX2_Select(ch); MUX1_Select(ch); short_delay(); 
 234              		.loc 1 109 9 view .LVU39
 235 0022 E5B2     		uxtb	r5, r4
 236 0024 2846     		mov	r0, r5
 237 0026 FFF7FEFF 		bl	MUX2_Select
 238              	.LVL18:
 109:Core/Src/main.c ****         MUX2_Select(ch); MUX1_Select(ch); short_delay(); 
 239              		.loc 1 109 26 discriminator 1 view .LVU40
 240 002a 2846     		mov	r0, r5
 241 002c FFF7FEFF 		bl	MUX1_Select
 242              	.LVL19:
 109:Core/Src/main.c ****         MUX2_Select(ch); MUX1_Select(ch); short_delay(); 
 243              		.loc 1 109 43 discriminator 2 view .LVU41
 244 0030 FFF7FEFF 		bl	short_delay
 245              	.LVL20:
 110:Core/Src/main.c **** 
 246              		.loc 1 110 9 view .LVU42
 247 0034 254D     		ldr	r5, .L32+8
 248 0036 2846     		mov	r0, r5
 249 0038 FFF7FEFF 		bl	HAL_ADC_Start
 250              	.LVL21:
 110:Core/Src/main.c **** 
 251              		.loc 1 110 32 discriminator 1 view .LVU43
 252 003c 2148     		ldr	r0, .L32
 253 003e FFF7FEFF 		bl	HAL_ADC_Start
 254              	.LVL22:
 110:Core/Src/main.c **** 
 255              		.loc 1 110 55 discriminator 2 view .LVU44
 256 0042 2148     		ldr	r0, .L32+4
 257 0044 FFF7FEFF 		bl	HAL_ADC_Start
 258              	.LVL23:
 112:Core/Src/main.c ****         if (HAL_ADC_PollForConversion(&hadc3, 1) == HAL_OK) {
 259              		.loc 1 112 9 view .LVU45
 112:Core/Src/main.c ****         if (HAL_ADC_PollForConversion(&hadc3, 1) == HAL_OK) {
 260              		.loc 1 112 13 is_stmt 0 view .LVU46
 261 0048 0121     		movs	r1, #1
 262 004a 2846     		mov	r0, r5
 263 004c FFF7FEFF 		bl	HAL_ADC_PollForConversion
 264              	.LVL24:
 112:Core/Src/main.c ****         if (HAL_ADC_PollForConversion(&hadc3, 1) == HAL_OK) {
 265              		.loc 1 112 12 discriminator 1 view .LVU47
 266 0050 0028     		cmp	r0, #0
 267 0052 D9D1     		bne	.L15
 112:Core/Src/main.c ****         if (HAL_ADC_PollForConversion(&hadc3, 1) == HAL_OK) {
 268              		.loc 1 112 61 is_stmt 1 discriminator 2 view .LVU48
 112:Core/Src/main.c ****         if (HAL_ADC_PollForConversion(&hadc3, 1) == HAL_OK) {
 269              		.loc 1 112 74 is_stmt 0 discriminator 2 view .LVU49
 270 0054 2846     		mov	r0, r5
 271 0056 FFF7FEFF 		bl	HAL_ADC_GetValue
 272              	.LVL25:
 112:Core/Src/main.c ****         if (HAL_ADC_PollForConversion(&hadc3, 1) == HAL_OK) {
 273              		.loc 1 112 72 discriminator 3 view .LVU50
 274 005a 26F81400 		strh	r0, [r6, r4, lsl #1]	@ movhi
 275 005e D3E7     		b	.L15
ARM GAS  C:\Temp\cc53cUQO.s 			page 8


 276              	.L29:
 277              	.LBB6:
 114:Core/Src/main.c ****             if (ch < 4) buffer[ch + 8] = val; else if (ch == 7) buffer[12] = val; 
 278              		.loc 1 114 13 is_stmt 1 view .LVU51
 114:Core/Src/main.c ****             if (ch < 4) buffer[ch + 8] = val; else if (ch == 7) buffer[12] = val; 
 279              		.loc 1 114 28 is_stmt 0 view .LVU52
 280 0060 1848     		ldr	r0, .L32
 281 0062 FFF7FEFF 		bl	HAL_ADC_GetValue
 282              	.LVL26:
 114:Core/Src/main.c ****             if (ch < 4) buffer[ch + 8] = val; else if (ch == 7) buffer[12] = val; 
 283              		.loc 1 114 22 discriminator 1 view .LVU53
 284 0066 80B2     		uxth	r0, r0
 285              	.LVL27:
 115:Core/Src/main.c ****         }
 286              		.loc 1 115 13 is_stmt 1 view .LVU54
 115:Core/Src/main.c ****         }
 287              		.loc 1 115 16 is_stmt 0 view .LVU55
 288 0068 032C     		cmp	r4, #3
 289 006a 04DC     		bgt	.L17
 115:Core/Src/main.c ****         }
 290              		.loc 1 115 25 is_stmt 1 discriminator 1 view .LVU56
 115:Core/Src/main.c ****         }
 291              		.loc 1 115 35 is_stmt 0 discriminator 1 view .LVU57
 292 006c 04F10803 		add	r3, r4, #8
 115:Core/Src/main.c ****         }
 293              		.loc 1 115 40 discriminator 1 view .LVU58
 294 0070 26F81300 		strh	r0, [r6, r3, lsl #1]	@ movhi
 295 0074 CDE7     		b	.L16
 296              	.L17:
 115:Core/Src/main.c ****         }
 297              		.loc 1 115 52 is_stmt 1 discriminator 2 view .LVU59
 115:Core/Src/main.c ****         }
 298              		.loc 1 115 55 is_stmt 0 discriminator 2 view .LVU60
 299 0076 072C     		cmp	r4, #7
 300 0078 CBD1     		bne	.L16
 115:Core/Src/main.c ****         }
 301              		.loc 1 115 65 is_stmt 1 discriminator 3 view .LVU61
 115:Core/Src/main.c ****         }
 302              		.loc 1 115 76 is_stmt 0 discriminator 3 view .LVU62
 303 007a 3083     		strh	r0, [r6, #24]	@ movhi
 304 007c C9E7     		b	.L16
 305              	.LVL28:
 306              	.L30:
 115:Core/Src/main.c ****         }
 307              		.loc 1 115 76 discriminator 3 view .LVU63
 308              	.LBE6:
 309              	.LBB7:
 118:Core/Src/main.c ****             uint16_t val = HAL_ADC_GetValue(&hadc2);
 310              		.loc 1 118 13 is_stmt 1 view .LVU64
 311              		.loc 1 118 28 is_stmt 0 view .LVU65
 312 007e 1248     		ldr	r0, .L32+4
 313 0080 FFF7FEFF 		bl	HAL_ADC_GetValue
 314              	.LVL29:
 315              		.loc 1 118 22 discriminator 1 view .LVU66
 316 0084 80B2     		uxth	r0, r0
 317              	.LVL30:
 119:Core/Src/main.c ****             switch(ch) { 
ARM GAS  C:\Temp\cc53cUQO.s 			page 9


 318              		.loc 1 119 13 is_stmt 1 view .LVU67
 319 0086 042C     		cmp	r4, #4
 320 0088 14D0     		beq	.L19
 321 008a 07DC     		bgt	.L20
 322 008c 022C     		cmp	r4, #2
 323 008e 15D0     		beq	.L21
 324 0090 032C     		cmp	r4, #3
 325 0092 11D0     		beq	.L22
 326 0094 012C     		cmp	r4, #1
 327 0096 C1D1     		bne	.L18
 120:Core/Src/main.c ****                 case 7: buffer[13]=val; break; case 6: buffer[14]=val; break; 
 121:Core/Src/main.c ****                 case 5: buffer[15]=val; break; case 4: buffer[16]=val; break; 
 122:Core/Src/main.c ****                 case 3: buffer[17]=val; break; case 2: buffer[18]=val; break; 
 123:Core/Src/main.c ****                 case 1: buffer[19]=val; break; 
 328              		.loc 1 123 25 view .LVU68
 329              		.loc 1 123 35 is_stmt 0 view .LVU69
 330 0098 F084     		strh	r0, [r6, #38]	@ movhi
 331              		.loc 1 123 41 is_stmt 1 view .LVU70
 332 009a BFE7     		b	.L18
 333              	.L20:
 119:Core/Src/main.c ****             switch(ch) { 
 334              		.loc 1 119 13 is_stmt 0 view .LVU71
 335 009c 062C     		cmp	r4, #6
 336 009e 07D0     		beq	.L24
 337 00a0 072C     		cmp	r4, #7
 338 00a2 03D0     		beq	.L25
 339 00a4 052C     		cmp	r4, #5
 340 00a6 B9D1     		bne	.L18
 121:Core/Src/main.c ****                 case 3: buffer[17]=val; break; case 2: buffer[18]=val; break; 
 341              		.loc 1 121 25 is_stmt 1 view .LVU72
 121:Core/Src/main.c ****                 case 3: buffer[17]=val; break; case 2: buffer[18]=val; break; 
 342              		.loc 1 121 35 is_stmt 0 view .LVU73
 343 00a8 F083     		strh	r0, [r6, #30]	@ movhi
 121:Core/Src/main.c ****                 case 3: buffer[17]=val; break; case 2: buffer[18]=val; break; 
 344              		.loc 1 121 41 is_stmt 1 view .LVU74
 345 00aa B7E7     		b	.L18
 346              	.L25:
 120:Core/Src/main.c ****                 case 7: buffer[13]=val; break; case 6: buffer[14]=val; break; 
 347              		.loc 1 120 25 view .LVU75
 120:Core/Src/main.c ****                 case 7: buffer[13]=val; break; case 6: buffer[14]=val; break; 
 348              		.loc 1 120 35 is_stmt 0 view .LVU76
 349 00ac 7083     		strh	r0, [r6, #26]	@ movhi
 120:Core/Src/main.c ****                 case 7: buffer[13]=val; break; case 6: buffer[14]=val; break; 
 350              		.loc 1 120 41 is_stmt 1 view .LVU77
 351 00ae B5E7     		b	.L18
 352              	.L24:
 120:Core/Src/main.c ****                 case 7: buffer[13]=val; break; case 6: buffer[14]=val; break; 
 353              		.loc 1 120 56 view .LVU78
 120:Core/Src/main.c ****                 case 7: buffer[13]=val; break; case 6: buffer[14]=val; break; 
 354              		.loc 1 120 66 is_stmt 0 view .LVU79
 355 00b0 B083     		strh	r0, [r6, #28]	@ movhi
 120:Core/Src/main.c ****                 case 7: buffer[13]=val; break; case 6: buffer[14]=val; break; 
 356              		.loc 1 120 72 is_stmt 1 view .LVU80
 357 00b2 B3E7     		b	.L18
 358              	.L19:
 121:Core/Src/main.c ****                 case 3: buffer[17]=val; break; case 2: buffer[18]=val; break; 
 359              		.loc 1 121 56 view .LVU81
ARM GAS  C:\Temp\cc53cUQO.s 			page 10


 121:Core/Src/main.c ****                 case 3: buffer[17]=val; break; case 2: buffer[18]=val; break; 
 360              		.loc 1 121 66 is_stmt 0 view .LVU82
 361 00b4 3084     		strh	r0, [r6, #32]	@ movhi
 121:Core/Src/main.c ****                 case 3: buffer[17]=val; break; case 2: buffer[18]=val; break; 
 362              		.loc 1 121 72 is_stmt 1 view .LVU83
 363 00b6 B1E7     		b	.L18
 364              	.L22:
 122:Core/Src/main.c ****                 case 1: buffer[19]=val; break; 
 365              		.loc 1 122 25 view .LVU84
 122:Core/Src/main.c ****                 case 1: buffer[19]=val; break; 
 366              		.loc 1 122 35 is_stmt 0 view .LVU85
 367 00b8 7084     		strh	r0, [r6, #34]	@ movhi
 122:Core/Src/main.c ****                 case 1: buffer[19]=val; break; 
 368              		.loc 1 122 41 is_stmt 1 view .LVU86
 369 00ba AFE7     		b	.L18
 370              	.L21:
 122:Core/Src/main.c ****                 case 1: buffer[19]=val; break; 
 371              		.loc 1 122 56 view .LVU87
 122:Core/Src/main.c ****                 case 1: buffer[19]=val; break; 
 372              		.loc 1 122 66 is_stmt 0 view .LVU88
 373 00bc B084     		strh	r0, [r6, #36]	@ movhi
 122:Core/Src/main.c ****                 case 1: buffer[19]=val; break; 
 374              		.loc 1 122 72 is_stmt 1 view .LVU89
 375 00be ADE7     		b	.L18
 376              	.LVL31:
 377              	.L31:
 122:Core/Src/main.c ****                 case 1: buffer[19]=val; break; 
 378              		.loc 1 122 72 is_stmt 0 view .LVU90
 379              	.LBE7:
 380              	.LBE5:
 124:Core/Src/main.c ****             }
 125:Core/Src/main.c ****         }
 126:Core/Src/main.c ****     }
 127:Core/Src/main.c **** }
 381              		.loc 1 127 1 view .LVU91
 382 00c0 70BD     		pop	{r4, r5, r6, pc}
 383              	.LVL32:
 384              	.L33:
 385              		.loc 1 127 1 view .LVU92
 386 00c2 00BF     		.align	2
 387              	.L32:
 388 00c4 00000000 		.word	hadc3
 389 00c8 00000000 		.word	hadc2
 390 00cc 00000000 		.word	hadc4
 391              		.cfi_endproc
 392              	.LFE136:
 394              		.section	.text.update_key_state_rt,"ax",%progbits
 395              		.align	1
 396              		.global	update_key_state_rt
 397              		.syntax unified
 398              		.thumb
 399              		.thumb_func
 401              	update_key_state_rt:
 402              	.LVL33:
 403              	.LFB137:
 128:Core/Src/main.c **** 
 129:Core/Src/main.c **** bool update_key_state_rt(int key_index, uint16_t current_raw_val) {
ARM GAS  C:\Temp\cc53cUQO.s 			page 11


 404              		.loc 1 129 67 is_stmt 1 view -0
 405              		.cfi_startproc
 406              		@ args = 0, pretend = 0, frame = 0
 407              		@ frame_needed = 0, uses_anonymous_args = 0
 408              		@ link register save eliminated.
 130:Core/Src/main.c ****     rt_state_t *state = &key_rt_states[key_index];
 409              		.loc 1 130 5 view .LVU94
 131:Core/Src/main.c ****     uint16_t base = startup_values[key_index];
 410              		.loc 1 131 5 view .LVU95
 411              		.loc 1 131 14 is_stmt 0 view .LVU96
 412 0000 234B     		ldr	r3, .L42
 413 0002 33F81030 		ldrh	r3, [r3, r0, lsl #1]
 414              	.LVL34:
 132:Core/Src/main.c ****     int current_depth = abs((int)current_raw_val - (int)base);
 415              		.loc 1 132 5 is_stmt 1 view .LVU97
 416              		.loc 1 132 50 is_stmt 0 view .LVU98
 417 0006 CB1A     		subs	r3, r1, r3
 418              	.LVL35:
 419              		.loc 1 132 9 view .LVU99
 420 0008 002B     		cmp	r3, #0
 421 000a B8BF     		it	lt
 422 000c 5B42     		rsblt	r3, r3, #0
 423              	.LVL36:
 133:Core/Src/main.c ****     if (current_depth < STATIC_AP_THRESHOLD) {
 424              		.loc 1 133 5 is_stmt 1 view .LVU100
 425              		.loc 1 133 8 is_stmt 0 view .LVU101
 426 000e 312B     		cmp	r3, #49
 427 0010 11DD     		ble	.L41
 134:Core/Src/main.c ****         state->is_active = false; state->anchor = current_depth; return false;
 135:Core/Src/main.c ****     }
 136:Core/Src/main.c ****     if (state->is_active) {
 428              		.loc 1 136 5 is_stmt 1 view .LVU102
 429              		.loc 1 136 14 is_stmt 0 view .LVU103
 430 0012 204A     		ldr	r2, .L42+4
 431 0014 02EB8002 		add	r2, r2, r0, lsl #2
 432              	.LVL37:
 433              		.loc 1 136 14 view .LVU104
 434 0018 9278     		ldrb	r2, [r2, #2]	@ zero_extendqisi2
 435              	.LVL38:
 436              		.loc 1 136 8 view .LVU105
 437 001a 1AB3     		cbz	r2, .L37
 137:Core/Src/main.c ****         if (current_depth > state->anchor) state->anchor = current_depth;
 438              		.loc 1 137 9 is_stmt 1 view .LVU106
 439              		.loc 1 137 34 is_stmt 0 view .LVU107
 440 001c 1D4A     		ldr	r2, .L42+4
 441 001e 32F82020 		ldrh	r2, [r2, r0, lsl #2]
 442              		.loc 1 137 12 view .LVU108
 443 0022 9A42     		cmp	r2, r3
 444 0024 11DA     		bge	.L38
 445              		.loc 1 137 44 is_stmt 1 discriminator 1 view .LVU109
 446              		.loc 1 137 58 is_stmt 0 discriminator 1 view .LVU110
 447 0026 1B4A     		ldr	r2, .L42+4
 448 0028 22F82030 		strh	r3, [r2, r0, lsl #2]	@ movhi
 449              	.LVL39:
 450              	.L39:
 138:Core/Src/main.c ****         else if ((state->anchor - current_depth) > RT_RELEASE_DIST) { state->is_active = false; sta
 139:Core/Src/main.c ****     } else {
ARM GAS  C:\Temp\cc53cUQO.s 			page 12


 140:Core/Src/main.c ****         if (current_depth < state->anchor) state->anchor = current_depth;
 141:Core/Src/main.c ****         else if ((current_depth - state->anchor) > RT_ACTUATION_DIST) { state->is_active = true; st
 142:Core/Src/main.c ****     }
 143:Core/Src/main.c ****     return state->is_active;
 451              		.loc 1 143 5 is_stmt 1 view .LVU111
 452              		.loc 1 143 17 is_stmt 0 view .LVU112
 453 002c 194B     		ldr	r3, .L42+4
 454              	.LVL40:
 455              		.loc 1 143 17 view .LVU113
 456 002e 03EB8003 		add	r3, r3, r0, lsl #2
 457 0032 9878     		ldrb	r0, [r3, #2]	@ zero_extendqisi2
 458              	.LVL41:
 144:Core/Src/main.c **** }
 459              		.loc 1 144 1 view .LVU114
 460 0034 7047     		bx	lr
 461              	.LVL42:
 462              	.L41:
 134:Core/Src/main.c ****     }
 463              		.loc 1 134 9 is_stmt 1 view .LVU115
 134:Core/Src/main.c ****     }
 464              		.loc 1 134 26 is_stmt 0 view .LVU116
 465 0036 1749     		ldr	r1, .L42+4
 466              	.LVL43:
 134:Core/Src/main.c ****     }
 467              		.loc 1 134 26 view .LVU117
 468 0038 01EB800C 		add	ip, r1, r0, lsl #2
 469 003c 0022     		movs	r2, #0
 470 003e 8CF80220 		strb	r2, [ip, #2]
 134:Core/Src/main.c ****     }
 471              		.loc 1 134 35 is_stmt 1 view .LVU118
 134:Core/Src/main.c ****     }
 472              		.loc 1 134 49 is_stmt 0 view .LVU119
 473 0042 21F82030 		strh	r3, [r1, r0, lsl #2]	@ movhi
 134:Core/Src/main.c ****     }
 474              		.loc 1 134 66 is_stmt 1 view .LVU120
 134:Core/Src/main.c ****     }
 475              		.loc 1 134 73 is_stmt 0 view .LVU121
 476 0046 1046     		mov	r0, r2
 477              	.LVL44:
 134:Core/Src/main.c ****     }
 478              		.loc 1 134 73 view .LVU122
 479 0048 7047     		bx	lr
 480              	.LVL45:
 481              	.L38:
 138:Core/Src/main.c ****         else if ((state->anchor - current_depth) > RT_RELEASE_DIST) { state->is_active = false; sta
 482              		.loc 1 138 14 is_stmt 1 view .LVU123
 138:Core/Src/main.c ****         else if ((state->anchor - current_depth) > RT_RELEASE_DIST) { state->is_active = false; sta
 483              		.loc 1 138 33 is_stmt 0 view .LVU124
 484 004a D21A     		subs	r2, r2, r3
 138:Core/Src/main.c ****         else if ((state->anchor - current_depth) > RT_RELEASE_DIST) { state->is_active = false; sta
 485              		.loc 1 138 17 view .LVU125
 486 004c 142A     		cmp	r2, #20
 487 004e EDDD     		ble	.L39
 138:Core/Src/main.c ****         else if ((state->anchor - current_depth) > RT_RELEASE_DIST) { state->is_active = false; sta
 488              		.loc 1 138 71 is_stmt 1 discriminator 1 view .LVU126
 138:Core/Src/main.c ****         else if ((state->anchor - current_depth) > RT_RELEASE_DIST) { state->is_active = false; sta
 489              		.loc 1 138 88 is_stmt 0 discriminator 1 view .LVU127
ARM GAS  C:\Temp\cc53cUQO.s 			page 13


 490 0050 104A     		ldr	r2, .L42+4
 491 0052 02EB8001 		add	r1, r2, r0, lsl #2
 492              	.LVL46:
 138:Core/Src/main.c ****         else if ((state->anchor - current_depth) > RT_RELEASE_DIST) { state->is_active = false; sta
 493              		.loc 1 138 88 discriminator 1 view .LVU128
 494 0056 4FF0000C 		mov	ip, #0
 495 005a 81F802C0 		strb	ip, [r1, #2]
 138:Core/Src/main.c ****         else if ((state->anchor - current_depth) > RT_RELEASE_DIST) { state->is_active = false; sta
 496              		.loc 1 138 97 is_stmt 1 view .LVU129
 138:Core/Src/main.c ****         else if ((state->anchor - current_depth) > RT_RELEASE_DIST) { state->is_active = false; sta
 497              		.loc 1 138 111 is_stmt 0 discriminator 1 view .LVU130
 498 005e 22F82030 		strh	r3, [r2, r0, lsl #2]	@ movhi
 499 0062 E3E7     		b	.L39
 500              	.LVL47:
 501              	.L37:
 140:Core/Src/main.c ****         else if ((current_depth - state->anchor) > RT_ACTUATION_DIST) { state->is_active = true; st
 502              		.loc 1 140 9 is_stmt 1 view .LVU131
 140:Core/Src/main.c ****         else if ((current_depth - state->anchor) > RT_ACTUATION_DIST) { state->is_active = true; st
 503              		.loc 1 140 34 is_stmt 0 view .LVU132
 504 0064 0B4A     		ldr	r2, .L42+4
 505 0066 32F82020 		ldrh	r2, [r2, r0, lsl #2]
 140:Core/Src/main.c ****         else if ((current_depth - state->anchor) > RT_ACTUATION_DIST) { state->is_active = true; st
 506              		.loc 1 140 12 view .LVU133
 507 006a 9A42     		cmp	r2, r3
 508 006c 03DD     		ble	.L40
 140:Core/Src/main.c ****         else if ((current_depth - state->anchor) > RT_ACTUATION_DIST) { state->is_active = true; st
 509              		.loc 1 140 44 is_stmt 1 discriminator 1 view .LVU134
 140:Core/Src/main.c ****         else if ((current_depth - state->anchor) > RT_ACTUATION_DIST) { state->is_active = true; st
 510              		.loc 1 140 58 is_stmt 0 discriminator 1 view .LVU135
 511 006e 094A     		ldr	r2, .L42+4
 512 0070 22F82030 		strh	r3, [r2, r0, lsl #2]	@ movhi
 513 0074 DAE7     		b	.L39
 514              	.L40:
 141:Core/Src/main.c ****     }
 515              		.loc 1 141 14 is_stmt 1 view .LVU136
 141:Core/Src/main.c ****     }
 516              		.loc 1 141 33 is_stmt 0 view .LVU137
 517 0076 9A1A     		subs	r2, r3, r2
 141:Core/Src/main.c ****     }
 518              		.loc 1 141 17 view .LVU138
 519 0078 142A     		cmp	r2, #20
 520 007a D7DD     		ble	.L39
 141:Core/Src/main.c ****     }
 521              		.loc 1 141 73 is_stmt 1 discriminator 1 view .LVU139
 141:Core/Src/main.c ****     }
 522              		.loc 1 141 90 is_stmt 0 discriminator 1 view .LVU140
 523 007c 054A     		ldr	r2, .L42+4
 524 007e 02EB8001 		add	r1, r2, r0, lsl #2
 525              	.LVL48:
 141:Core/Src/main.c ****     }
 526              		.loc 1 141 90 discriminator 1 view .LVU141
 527 0082 4FF0010C 		mov	ip, #1
 528 0086 81F802C0 		strb	ip, [r1, #2]
 141:Core/Src/main.c ****     }
 529              		.loc 1 141 98 is_stmt 1 view .LVU142
 141:Core/Src/main.c ****     }
 530              		.loc 1 141 112 is_stmt 0 discriminator 1 view .LVU143
ARM GAS  C:\Temp\cc53cUQO.s 			page 14


 531 008a 22F82030 		strh	r3, [r2, r0, lsl #2]	@ movhi
 532 008e CDE7     		b	.L39
 533              	.L43:
 534              		.align	2
 535              	.L42:
 536 0090 00000000 		.word	startup_values
 537 0094 00000000 		.word	key_rt_states
 538              		.cfi_endproc
 539              	.LFE137:
 541              		.section	.text.setup,"ax",%progbits
 542              		.align	1
 543              		.global	setup
 544              		.syntax unified
 545              		.thumb
 546              		.thumb_func
 548              	setup:
 549              	.LFB138:
 145:Core/Src/main.c **** 
 146:Core/Src/main.c **** void setup(void) {
 550              		.loc 1 146 18 is_stmt 1 view -0
 551              		.cfi_startproc
 552              		@ args = 0, pretend = 0, frame = 0
 553              		@ frame_needed = 0, uses_anonymous_args = 0
 554 0000 10B5     		push	{r4, lr}
 555              	.LCFI5:
 556              		.cfi_def_cfa_offset 8
 557              		.cfi_offset 4, -8
 558              		.cfi_offset 14, -4
 147:Core/Src/main.c ****     HAL_Delay(1000); 
 559              		.loc 1 147 5 view .LVU145
 560 0002 4FF47A70 		mov	r0, #1000
 561 0006 FFF7FEFF 		bl	HAL_Delay
 562              	.LVL49:
 148:Core/Src/main.c ****     for(int k=0; k<10; k++) scan_all_keys_fast(startup_values);
 563              		.loc 1 148 5 view .LVU146
 564              	.LBB8:
 565              		.loc 1 148 9 view .LVU147
 566              		.loc 1 148 13 is_stmt 0 view .LVU148
 567 000a 0024     		movs	r4, #0
 568              		.loc 1 148 5 view .LVU149
 569 000c 03E0     		b	.L45
 570              	.LVL50:
 571              	.L46:
 572              		.loc 1 148 29 is_stmt 1 discriminator 4 view .LVU150
 573 000e 1448     		ldr	r0, .L50
 574 0010 FFF7FEFF 		bl	scan_all_keys_fast
 575              	.LVL51:
 576              		.loc 1 148 25 discriminator 4 view .LVU151
 577 0014 0134     		adds	r4, r4, #1
 578              	.LVL52:
 579              	.L45:
 580              		.loc 1 148 19 discriminator 3 view .LVU152
 581 0016 092C     		cmp	r4, #9
 582 0018 F9DD     		ble	.L46
 583              	.LBE8:
 584              	.LBB9:
 149:Core/Src/main.c ****     for(int i=0; i<KEY_COUNT; i++) { key_active[i] = false; key_rt_states[i].is_active = false; key
ARM GAS  C:\Temp\cc53cUQO.s 			page 15


 585              		.loc 1 149 13 is_stmt 0 view .LVU153
 586 001a 0023     		movs	r3, #0
 587 001c 09E0     		b	.L47
 588              	.LVL53:
 589              	.L48:
 590              		.loc 1 149 38 is_stmt 1 discriminator 3 view .LVU154
 591              		.loc 1 149 52 is_stmt 0 discriminator 3 view .LVU155
 592 001e 0022     		movs	r2, #0
 593 0020 1049     		ldr	r1, .L50+4
 594 0022 CA54     		strb	r2, [r1, r3]
 595              		.loc 1 149 61 is_stmt 1 discriminator 3 view .LVU156
 596              		.loc 1 149 88 is_stmt 0 discriminator 3 view .LVU157
 597 0024 1049     		ldr	r1, .L50+8
 598 0026 01EB8300 		add	r0, r1, r3, lsl #2
 599 002a 8270     		strb	r2, [r0, #2]
 600              		.loc 1 149 97 is_stmt 1 discriminator 3 view .LVU158
 601              		.loc 1 149 121 is_stmt 0 discriminator 3 view .LVU159
 602 002c 21F82320 		strh	r2, [r1, r3, lsl #2]	@ movhi
 603              		.loc 1 149 32 is_stmt 1 discriminator 3 view .LVU160
 604 0030 0133     		adds	r3, r3, #1
 605              	.LVL54:
 606              	.L47:
 607              		.loc 1 149 19 discriminator 1 view .LVU161
 608 0032 132B     		cmp	r3, #19
 609 0034 F3DD     		ble	.L48
 610              	.LBE9:
 150:Core/Src/main.c ****     memset(&current_report, 0, sizeof(current_report)); current_report.msg_type = 0x00; current_rep
 611              		.loc 1 150 5 view .LVU162
 612 0036 0D4B     		ldr	r3, .L50+12
 613              	.LVL55:
 614              		.loc 1 150 5 is_stmt 0 view .LVU163
 615 0038 0021     		movs	r1, #0
 616 003a 1960     		str	r1, [r3]
 617 003c 5960     		str	r1, [r3, #4]
 618 003e 9960     		str	r1, [r3, #8]
 619 0040 D960     		str	r1, [r3, #12]
 620 0042 1961     		str	r1, [r3, #16]
 621              		.loc 1 150 57 is_stmt 1 discriminator 1 view .LVU164
 622              		.loc 1 150 89 discriminator 1 view .LVU165
 623              		.loc 1 150 113 is_stmt 0 discriminator 1 view .LVU166
 624 0044 1422     		movs	r2, #20
 625 0046 5A70     		strb	r2, [r3, #1]
 151:Core/Src/main.c ****     memset(&prev_report, 0, sizeof(prev_report));
 626              		.loc 1 151 5 is_stmt 1 view .LVU167
 627 0048 094B     		ldr	r3, .L50+16
 628 004a 1960     		str	r1, [r3]
 629 004c 5960     		str	r1, [r3, #4]
 630 004e 9960     		str	r1, [r3, #8]
 631 0050 D960     		str	r1, [r3, #12]
 632 0052 1961     		str	r1, [r3, #16]
 152:Core/Src/main.c ****     memset(webhid_tx_buf, 0, sizeof(webhid_tx_buf));
 633              		.loc 1 152 5 view .LVU168
 634 0054 4022     		movs	r2, #64
 635 0056 0748     		ldr	r0, .L50+20
 636 0058 FFF7FEFF 		bl	memset
 637              	.LVL56:
 153:Core/Src/main.c **** }
ARM GAS  C:\Temp\cc53cUQO.s 			page 16


 638              		.loc 1 153 1 is_stmt 0 view .LVU169
 639 005c 10BD     		pop	{r4, pc}
 640              	.LVL57:
 641              	.L51:
 642              		.loc 1 153 1 view .LVU170
 643 005e 00BF     		.align	2
 644              	.L50:
 645 0060 00000000 		.word	startup_values
 646 0064 00000000 		.word	key_active
 647 0068 00000000 		.word	key_rt_states
 648 006c 00000000 		.word	current_report
 649 0070 00000000 		.word	prev_report
 650 0074 00000000 		.word	webhid_tx_buf
 651              		.cfi_endproc
 652              	.LFE138:
 654              		.section	.text.loop,"ax",%progbits
 655              		.align	1
 656              		.global	loop
 657              		.syntax unified
 658              		.thumb
 659              		.thumb_func
 661              	loop:
 662              	.LFB139:
 154:Core/Src/main.c **** 
 155:Core/Src/main.c **** void loop(void) {
 663              		.loc 1 155 17 is_stmt 1 view -0
 664              		.cfi_startproc
 665              		@ args = 0, pretend = 0, frame = 0
 666              		@ frame_needed = 0, uses_anonymous_args = 0
 667 0000 2DE9F843 		push	{r3, r4, r5, r6, r7, r8, r9, lr}
 668              	.LCFI6:
 669              		.cfi_def_cfa_offset 32
 670              		.cfi_offset 3, -32
 671              		.cfi_offset 4, -28
 672              		.cfi_offset 5, -24
 673              		.cfi_offset 6, -20
 674              		.cfi_offset 7, -16
 675              		.cfi_offset 8, -12
 676              		.cfi_offset 9, -8
 677              		.cfi_offset 14, -4
 156:Core/Src/main.c ****     scan_all_keys_fast(adc_values);
 678              		.loc 1 156 5 view .LVU172
 679 0004 5348     		ldr	r0, .L83
 680 0006 FFF7FEFF 		bl	scan_all_keys_fast
 681              	.LVL58:
 157:Core/Src/main.c ****     uint16_t btns_mask = 0; uint8_t trigger_l = 0; uint8_t trigger_r = 0;
 682              		.loc 1 157 5 view .LVU173
 683              		.loc 1 157 29 view .LVU174
 684              		.loc 1 157 52 view .LVU175
 158:Core/Src/main.c ****     bool up=false, down=false, left=false, right=false;
 685              		.loc 1 158 5 view .LVU176
 159:Core/Src/main.c **** 
 160:Core/Src/main.c ****     for(int i = 0; i < KEY_COUNT; i++) {
 686              		.loc 1 160 5 view .LVU177
 687              	.LBB10:
 688              		.loc 1 160 9 view .LVU178
 689              		.loc 1 160 13 is_stmt 0 view .LVU179
ARM GAS  C:\Temp\cc53cUQO.s 			page 17


 690 000a 0024     		movs	r4, #0
 691              	.LBE10:
 158:Core/Src/main.c ****     bool up=false, down=false, left=false, right=false;
 692              		.loc 1 158 20 view .LVU180
 693 000c A146     		mov	r9, r4
 158:Core/Src/main.c ****     bool up=false, down=false, left=false, right=false;
 694              		.loc 1 158 10 view .LVU181
 695 000e A046     		mov	r8, r4
 157:Core/Src/main.c ****     bool up=false, down=false, left=false, right=false;
 696              		.loc 1 157 60 view .LVU182
 697 0010 2746     		mov	r7, r4
 157:Core/Src/main.c ****     bool up=false, down=false, left=false, right=false;
 698              		.loc 1 157 37 view .LVU183
 699 0012 2646     		mov	r6, r4
 157:Core/Src/main.c ****     bool up=false, down=false, left=false, right=false;
 700              		.loc 1 157 14 view .LVU184
 701 0014 2546     		mov	r5, r4
 702              	.LBB15:
 703              		.loc 1 160 5 view .LVU185
 704 0016 2CE0     		b	.L53
 705              	.LVL59:
 706              	.L59:
 707              	.LBB11:
 708              	.LBB12:
 161:Core/Src/main.c ****         bool is_pressed = update_key_state_rt(i, adc_values[i]);
 162:Core/Src/main.c ****         key_active[i] = is_pressed; 
 163:Core/Src/main.c ****         if (is_pressed) {
 164:Core/Src/main.c ****             uint8_t id = key_map[i];
 165:Core/Src/main.c ****             switch(id) {
 709              		.loc 1 165 13 view .LVU186
 710 0018 032B     		cmp	r3, #3
 711 001a 29D1     		bne	.L54
 166:Core/Src/main.c ****                 case ID_UP: btns_mask |= XINPUT_DPAD_UP; up=true; break;
 167:Core/Src/main.c ****                 case ID_DOWN: btns_mask |= XINPUT_DPAD_DOWN; down=true; break;
 168:Core/Src/main.c ****                 case ID_LEFT: btns_mask |= XINPUT_DPAD_LEFT; left=true; break;
 169:Core/Src/main.c ****                 case ID_RIGHT: btns_mask |= XINPUT_DPAD_RIGHT; right=true; break;
 712              		.loc 1 169 32 is_stmt 1 view .LVU187
 713              		.loc 1 169 42 is_stmt 0 view .LVU188
 714 001c 45F00805 		orr	r5, r5, #8
 715              	.LVL60:
 716              		.loc 1 169 64 is_stmt 1 view .LVU189
 717              		.loc 1 169 76 view .LVU190
 718 0020 26E0     		b	.L54
 719              	.LVL61:
 720              	.L57:
 165:Core/Src/main.c ****                 case ID_UP: btns_mask |= XINPUT_DPAD_UP; up=true; break;
 721              		.loc 1 165 13 is_stmt 0 view .LVU191
 722 0022 062B     		cmp	r3, #6
 723 0024 4AD0     		beq	.L63
 724 0026 072B     		cmp	r3, #7
 725 0028 4BD0     		beq	.L64
 726 002a 052B     		cmp	r3, #5
 727 002c 20D1     		bne	.L54
 170:Core/Src/main.c ****                 case ID_BTN1: btns_mask |= XINPUT_THUMB_R; break; 
 171:Core/Src/main.c ****                 case ID_BTN2: btns_mask |= XINPUT_THUMB_L; break;
 728              		.loc 1 171 31 is_stmt 1 view .LVU192
 729              		.loc 1 171 41 is_stmt 0 view .LVU193
ARM GAS  C:\Temp\cc53cUQO.s 			page 18


 730 002e 45F04005 		orr	r5, r5, #64
 731              	.LVL62:
 732              		.loc 1 171 60 is_stmt 1 view .LVU194
 733 0032 1DE0     		b	.L54
 734              	.L55:
 165:Core/Src/main.c ****                 case ID_UP: btns_mask |= XINPUT_DPAD_UP; up=true; break;
 735              		.loc 1 165 13 is_stmt 0 view .LVU195
 736 0034 0F2B     		cmp	r3, #15
 737 0036 4AD0     		beq	.L66
 738 0038 0ED8     		bhi	.L67
 739 003a 0D2B     		cmp	r3, #13
 740 003c 44D0     		beq	.L68
 741 003e 06D8     		bhi	.L69
 742 0040 092B     		cmp	r3, #9
 743 0042 50D0     		beq	.L79
 744 0044 0A2B     		cmp	r3, #10
 745 0046 13D1     		bne	.L54
 172:Core/Src/main.c ****                 case ID_BTN3: btns_mask |= XINPUT_BTN_A; break; 
 173:Core/Src/main.c ****                 case ID_BTN4: btns_mask |= XINPUT_BTN_B; break; 
 174:Core/Src/main.c ****                 case ID_BTN5: trigger_l = 255; break; 
 175:Core/Src/main.c ****                 case ID_BTN6: trigger_r = 255; break; 
 176:Core/Src/main.c ****                 case ID_BTN7: btns_mask |= XINPUT_GUIDE; break; 
 746              		.loc 1 176 31 is_stmt 1 view .LVU196
 747              		.loc 1 176 41 is_stmt 0 view .LVU197
 748 0048 45F48065 		orr	r5, r5, #1024
 749              	.LVL63:
 750              		.loc 1 176 58 is_stmt 1 view .LVU198
 751 004c 10E0     		b	.L54
 752              	.L69:
 165:Core/Src/main.c ****                 case ID_UP: btns_mask |= XINPUT_DPAD_UP; up=true; break;
 753              		.loc 1 165 13 is_stmt 0 view .LVU199
 754 004e 0E2B     		cmp	r3, #14
 755 0050 0ED1     		bne	.L54
 177:Core/Src/main.c ****                 case ID_BTN10: btns_mask |= XINPUT_BTN_X; break;
 178:Core/Src/main.c ****                 case ID_BTN11: btns_mask |= XINPUT_BTN_Y; break; 
 756              		.loc 1 178 32 is_stmt 1 view .LVU200
 757              		.loc 1 178 42 is_stmt 0 view .LVU201
 758 0052 45F40045 		orr	r5, r5, #32768
 759              	.LVL64:
 760              		.loc 1 178 59 is_stmt 1 view .LVU202
 761 0056 0BE0     		b	.L54
 762              	.L67:
 165:Core/Src/main.c ****                 case ID_UP: btns_mask |= XINPUT_DPAD_UP; up=true; break;
 763              		.loc 1 165 13 is_stmt 0 view .LVU203
 764 0058 112B     		cmp	r3, #17
 765 005a 3BD0     		beq	.L72
 766 005c 122B     		cmp	r3, #18
 767 005e 3CD0     		beq	.L73
 768 0060 102B     		cmp	r3, #16
 769 0062 05D1     		bne	.L54
 179:Core/Src/main.c ****                 case ID_BTN12: btns_mask |= XINPUT_LB; break; 
 180:Core/Src/main.c ****                 case ID_BTN13: btns_mask |= XINPUT_RB; break; 
 770              		.loc 1 180 32 is_stmt 1 view .LVU204
 771              		.loc 1 180 42 is_stmt 0 view .LVU205
 772 0064 45F40075 		orr	r5, r5, #512
 773              	.LVL65:
 774              		.loc 1 180 56 is_stmt 1 view .LVU206
ARM GAS  C:\Temp\cc53cUQO.s 			page 19


 775 0068 02E0     		b	.L54
 776              	.L60:
 166:Core/Src/main.c ****                 case ID_DOWN: btns_mask |= XINPUT_DPAD_DOWN; down=true; break;
 777              		.loc 1 166 29 view .LVU207
 166:Core/Src/main.c ****                 case ID_DOWN: btns_mask |= XINPUT_DPAD_DOWN; down=true; break;
 778              		.loc 1 166 39 is_stmt 0 view .LVU208
 779 006a 45F00105 		orr	r5, r5, #1
 780              	.LVL66:
 166:Core/Src/main.c ****                 case ID_DOWN: btns_mask |= XINPUT_DPAD_DOWN; down=true; break;
 781              		.loc 1 166 58 is_stmt 1 view .LVU209
 166:Core/Src/main.c ****                 case ID_DOWN: btns_mask |= XINPUT_DPAD_DOWN; down=true; break;
 782              		.loc 1 166 67 view .LVU210
 166:Core/Src/main.c ****                 case ID_DOWN: btns_mask |= XINPUT_DPAD_DOWN; down=true; break;
 783              		.loc 1 166 60 is_stmt 0 view .LVU211
 784 006e 8046     		mov	r8, r0
 785              	.LVL67:
 786              	.L54:
 166:Core/Src/main.c ****                 case ID_DOWN: btns_mask |= XINPUT_DPAD_DOWN; down=true; break;
 787              		.loc 1 166 60 view .LVU212
 788              	.LBE12:
 789              	.LBE11:
 160:Core/Src/main.c ****         bool is_pressed = update_key_state_rt(i, adc_values[i]);
 790              		.loc 1 160 36 is_stmt 1 discriminator 2 view .LVU213
 791 0070 0134     		adds	r4, r4, #1
 792              	.LVL68:
 793              	.L53:
 160:Core/Src/main.c ****         bool is_pressed = update_key_state_rt(i, adc_values[i]);
 794              		.loc 1 160 22 discriminator 1 view .LVU214
 795 0072 132C     		cmp	r4, #19
 796 0074 3ADC     		bgt	.L81
 797              	.LBB14:
 161:Core/Src/main.c ****         key_active[i] = is_pressed; 
 798              		.loc 1 161 9 view .LVU215
 161:Core/Src/main.c ****         key_active[i] = is_pressed; 
 799              		.loc 1 161 27 is_stmt 0 view .LVU216
 800 0076 374B     		ldr	r3, .L83
 801 0078 33F81410 		ldrh	r1, [r3, r4, lsl #1]
 802 007c 2046     		mov	r0, r4
 803 007e FFF7FEFF 		bl	update_key_state_rt
 804              	.LVL69:
 162:Core/Src/main.c ****         if (is_pressed) {
 805              		.loc 1 162 9 is_stmt 1 view .LVU217
 162:Core/Src/main.c ****         if (is_pressed) {
 806              		.loc 1 162 23 is_stmt 0 view .LVU218
 807 0082 354B     		ldr	r3, .L83+4
 808 0084 1855     		strb	r0, [r3, r4]
 163:Core/Src/main.c ****             uint8_t id = key_map[i];
 809              		.loc 1 163 9 is_stmt 1 view .LVU219
 163:Core/Src/main.c ****             uint8_t id = key_map[i];
 810              		.loc 1 163 12 is_stmt 0 view .LVU220
 811 0086 0028     		cmp	r0, #0
 812 0088 F2D0     		beq	.L54
 813              	.LBB13:
 164:Core/Src/main.c ****             switch(id) {
 814              		.loc 1 164 13 is_stmt 1 view .LVU221
 164:Core/Src/main.c ****             switch(id) {
 815              		.loc 1 164 21 is_stmt 0 view .LVU222
ARM GAS  C:\Temp\cc53cUQO.s 			page 20


 816 008a 344B     		ldr	r3, .L83+8
 817 008c 1B5D     		ldrb	r3, [r3, r4]	@ zero_extendqisi2
 818              	.LVL70:
 165:Core/Src/main.c ****                 case ID_UP: btns_mask |= XINPUT_DPAD_UP; up=true; break;
 819              		.loc 1 165 13 is_stmt 1 view .LVU223
 820 008e 082B     		cmp	r3, #8
 821 0090 26D0     		beq	.L78
 822 0092 CFD8     		bhi	.L55
 823 0094 042B     		cmp	r3, #4
 824 0096 0ED0     		beq	.L56
 825 0098 C3D8     		bhi	.L57
 826 009a 022B     		cmp	r3, #2
 827 009c 08D0     		beq	.L58
 828 009e BBD8     		bhi	.L59
 829 00a0 002B     		cmp	r3, #0
 830 00a2 E2D0     		beq	.L60
 831 00a4 012B     		cmp	r3, #1
 832 00a6 E3D1     		bne	.L54
 167:Core/Src/main.c ****                 case ID_LEFT: btns_mask |= XINPUT_DPAD_LEFT; left=true; break;
 833              		.loc 1 167 31 view .LVU224
 167:Core/Src/main.c ****                 case ID_LEFT: btns_mask |= XINPUT_DPAD_LEFT; left=true; break;
 834              		.loc 1 167 41 is_stmt 0 view .LVU225
 835 00a8 45F00205 		orr	r5, r5, #2
 836              	.LVL71:
 167:Core/Src/main.c ****                 case ID_LEFT: btns_mask |= XINPUT_DPAD_LEFT; left=true; break;
 837              		.loc 1 167 62 is_stmt 1 view .LVU226
 167:Core/Src/main.c ****                 case ID_LEFT: btns_mask |= XINPUT_DPAD_LEFT; left=true; break;
 838              		.loc 1 167 73 view .LVU227
 167:Core/Src/main.c ****                 case ID_LEFT: btns_mask |= XINPUT_DPAD_LEFT; left=true; break;
 839              		.loc 1 167 66 is_stmt 0 view .LVU228
 840 00ac 8146     		mov	r9, r0
 167:Core/Src/main.c ****                 case ID_LEFT: btns_mask |= XINPUT_DPAD_LEFT; left=true; break;
 841              		.loc 1 167 73 view .LVU229
 842 00ae DFE7     		b	.L54
 843              	.LVL72:
 844              	.L58:
 168:Core/Src/main.c ****                 case ID_RIGHT: btns_mask |= XINPUT_DPAD_RIGHT; right=true; break;
 845              		.loc 1 168 31 is_stmt 1 view .LVU230
 168:Core/Src/main.c ****                 case ID_RIGHT: btns_mask |= XINPUT_DPAD_RIGHT; right=true; break;
 846              		.loc 1 168 41 is_stmt 0 view .LVU231
 847 00b0 45F00405 		orr	r5, r5, #4
 848              	.LVL73:
 168:Core/Src/main.c ****                 case ID_RIGHT: btns_mask |= XINPUT_DPAD_RIGHT; right=true; break;
 849              		.loc 1 168 62 is_stmt 1 view .LVU232
 168:Core/Src/main.c ****                 case ID_RIGHT: btns_mask |= XINPUT_DPAD_RIGHT; right=true; break;
 850              		.loc 1 168 73 view .LVU233
 851 00b4 DCE7     		b	.L54
 852              	.LVL74:
 853              	.L56:
 170:Core/Src/main.c ****                 case ID_BTN2: btns_mask |= XINPUT_THUMB_L; break;
 854              		.loc 1 170 31 view .LVU234
 170:Core/Src/main.c ****                 case ID_BTN2: btns_mask |= XINPUT_THUMB_L; break;
 855              		.loc 1 170 41 is_stmt 0 view .LVU235
 856 00b6 45F08005 		orr	r5, r5, #128
 857              	.LVL75:
 170:Core/Src/main.c ****                 case ID_BTN2: btns_mask |= XINPUT_THUMB_L; break;
 858              		.loc 1 170 60 is_stmt 1 view .LVU236
ARM GAS  C:\Temp\cc53cUQO.s 			page 21


 859 00ba D9E7     		b	.L54
 860              	.L63:
 172:Core/Src/main.c ****                 case ID_BTN4: btns_mask |= XINPUT_BTN_B; break; 
 861              		.loc 1 172 31 view .LVU237
 172:Core/Src/main.c ****                 case ID_BTN4: btns_mask |= XINPUT_BTN_B; break; 
 862              		.loc 1 172 41 is_stmt 0 view .LVU238
 863 00bc 45F48055 		orr	r5, r5, #4096
 864              	.LVL76:
 172:Core/Src/main.c ****                 case ID_BTN4: btns_mask |= XINPUT_BTN_B; break; 
 865              		.loc 1 172 58 is_stmt 1 view .LVU239
 866 00c0 D6E7     		b	.L54
 867              	.L64:
 173:Core/Src/main.c ****                 case ID_BTN5: trigger_l = 255; break; 
 868              		.loc 1 173 31 view .LVU240
 173:Core/Src/main.c ****                 case ID_BTN5: trigger_l = 255; break; 
 869              		.loc 1 173 41 is_stmt 0 view .LVU241
 870 00c2 45F40055 		orr	r5, r5, #8192
 871              	.LVL77:
 173:Core/Src/main.c ****                 case ID_BTN5: trigger_l = 255; break; 
 872              		.loc 1 173 58 is_stmt 1 view .LVU242
 873 00c6 D3E7     		b	.L54
 874              	.L68:
 177:Core/Src/main.c ****                 case ID_BTN11: btns_mask |= XINPUT_BTN_Y; break; 
 875              		.loc 1 177 32 view .LVU243
 177:Core/Src/main.c ****                 case ID_BTN11: btns_mask |= XINPUT_BTN_Y; break; 
 876              		.loc 1 177 42 is_stmt 0 view .LVU244
 877 00c8 45F48045 		orr	r5, r5, #16384
 878              	.LVL78:
 177:Core/Src/main.c ****                 case ID_BTN11: btns_mask |= XINPUT_BTN_Y; break; 
 879              		.loc 1 177 59 is_stmt 1 view .LVU245
 880 00cc D0E7     		b	.L54
 881              	.L66:
 179:Core/Src/main.c ****                 case ID_BTN13: btns_mask |= XINPUT_RB; break; 
 882              		.loc 1 179 32 view .LVU246
 179:Core/Src/main.c ****                 case ID_BTN13: btns_mask |= XINPUT_RB; break; 
 883              		.loc 1 179 42 is_stmt 0 view .LVU247
 884 00ce 45F48075 		orr	r5, r5, #256
 885              	.LVL79:
 179:Core/Src/main.c ****                 case ID_BTN13: btns_mask |= XINPUT_RB; break; 
 886              		.loc 1 179 56 is_stmt 1 view .LVU248
 887 00d2 CDE7     		b	.L54
 888              	.L72:
 181:Core/Src/main.c ****                 case ID_BTN14: btns_mask |= XINPUT_START; break; 
 889              		.loc 1 181 32 view .LVU249
 890              		.loc 1 181 42 is_stmt 0 view .LVU250
 891 00d4 45F01005 		orr	r5, r5, #16
 892              	.LVL80:
 893              		.loc 1 181 59 is_stmt 1 view .LVU251
 894 00d8 CAE7     		b	.L54
 895              	.L73:
 182:Core/Src/main.c ****                 case ID_BTN15: btns_mask |= XINPUT_BACK; break; 
 896              		.loc 1 182 32 view .LVU252
 897              		.loc 1 182 42 is_stmt 0 view .LVU253
 898 00da 45F02005 		orr	r5, r5, #32
 899              	.LVL81:
 900              		.loc 1 182 58 is_stmt 1 view .LVU254
 901 00de C7E7     		b	.L54
ARM GAS  C:\Temp\cc53cUQO.s 			page 22


 902              	.L78:
 174:Core/Src/main.c ****                 case ID_BTN6: trigger_r = 255; break; 
 903              		.loc 1 174 41 is_stmt 0 view .LVU255
 904 00e0 FF23     		movs	r3, #255
 905              	.LVL82:
 174:Core/Src/main.c ****                 case ID_BTN6: trigger_r = 255; break; 
 906              		.loc 1 174 41 view .LVU256
 907 00e2 1E46     		mov	r6, r3
 908              	.LVL83:
 174:Core/Src/main.c ****                 case ID_BTN6: trigger_r = 255; break; 
 909              		.loc 1 174 41 view .LVU257
 910 00e4 C4E7     		b	.L54
 911              	.LVL84:
 912              	.L79:
 175:Core/Src/main.c ****                 case ID_BTN7: btns_mask |= XINPUT_GUIDE; break; 
 913              		.loc 1 175 41 view .LVU258
 914 00e6 FF23     		movs	r3, #255
 915              	.LVL85:
 175:Core/Src/main.c ****                 case ID_BTN7: btns_mask |= XINPUT_GUIDE; break; 
 916              		.loc 1 175 41 view .LVU259
 917 00e8 1F46     		mov	r7, r3
 918              	.LVL86:
 175:Core/Src/main.c ****                 case ID_BTN7: btns_mask |= XINPUT_GUIDE; break; 
 919              		.loc 1 175 41 view .LVU260
 920 00ea C1E7     		b	.L54
 921              	.LVL87:
 922              	.L81:
 175:Core/Src/main.c ****                 case ID_BTN7: btns_mask |= XINPUT_GUIDE; break; 
 923              		.loc 1 175 41 view .LVU261
 924              	.LBE13:
 925              	.LBE14:
 926              	.LBE15:
 183:Core/Src/main.c ****                 default: break;
 184:Core/Src/main.c ****             }
 185:Core/Src/main.c ****         }
 186:Core/Src/main.c ****     }
 187:Core/Src/main.c ****     if (left && right) { left = false; right = false; }
 927              		.loc 1 187 5 is_stmt 1 view .LVU262
 928              		.loc 1 187 26 discriminator 2 view .LVU263
 929              		.loc 1 187 40 view .LVU264
 188:Core/Src/main.c ****     if (up && down) { btns_mask &= ~(XINPUT_DPAD_DOWN); btns_mask |= XINPUT_DPAD_UP; }
 930              		.loc 1 188 5 view .LVU265
 931              		.loc 1 188 8 is_stmt 0 view .LVU266
 932 00ec 4346     		mov	r3, r8
 933 00ee 33B1     		cbz	r3, .L76
 934              		.loc 1 188 12 discriminator 1 view .LVU267
 935 00f0 4B46     		mov	r3, r9
 936 00f2 23B1     		cbz	r3, .L76
 937              		.loc 1 188 23 is_stmt 1 discriminator 2 view .LVU268
 938              		.loc 1 188 33 is_stmt 0 discriminator 2 view .LVU269
 939 00f4 25F00205 		bic	r5, r5, #2
 940              	.LVL88:
 941              		.loc 1 188 33 discriminator 2 view .LVU270
 942 00f8 ADB2     		uxth	r5, r5
 943              	.LVL89:
 944              		.loc 1 188 57 is_stmt 1 view .LVU271
 945              		.loc 1 188 67 is_stmt 0 discriminator 2 view .LVU272
ARM GAS  C:\Temp\cc53cUQO.s 			page 23


 946 00fa 45F00105 		orr	r5, r5, #1
 947              	.LVL90:
 948              	.L76:
 189:Core/Src/main.c ****     current_report.buttons = btns_mask; current_report.lt = trigger_l; current_report.rt = trigger_
 949              		.loc 1 189 5 is_stmt 1 view .LVU273
 950              		.loc 1 189 28 is_stmt 0 view .LVU274
 951 00fe 1848     		ldr	r0, .L83+12
 952 0100 4580     		strh	r5, [r0, #2]	@ movhi
 953              		.loc 1 189 41 is_stmt 1 view .LVU275
 954              		.loc 1 189 59 is_stmt 0 view .LVU276
 955 0102 0671     		strb	r6, [r0, #4]
 956              		.loc 1 189 72 is_stmt 1 view .LVU277
 957              		.loc 1 189 90 is_stmt 0 view .LVU278
 958 0104 4771     		strb	r7, [r0, #5]
 190:Core/Src/main.c **** 
 191:Core/Src/main.c ****     if (memcmp(&current_report, &prev_report, sizeof(XInputReport_t)) != 0) {
 959              		.loc 1 191 5 is_stmt 1 view .LVU279
 960              		.loc 1 191 9 is_stmt 0 view .LVU280
 961 0106 1422     		movs	r2, #20
 962 0108 1649     		ldr	r1, .L83+16
 963 010a FFF7FEFF 		bl	memcmp
 964              	.LVL91:
 965              		.loc 1 191 8 discriminator 1 view .LVU281
 966 010e 90B9     		cbnz	r0, .L82
 967              	.LVL92:
 968              	.L77:
 192:Core/Src/main.c ****         if (USBD_HID_SendReport(&hUsbDeviceFS, (uint8_t*)&current_report, sizeof(current_report)) =
 193:Core/Src/main.c ****             prev_report = current_report;
 194:Core/Src/main.c ****         }
 195:Core/Src/main.c ****     }
 196:Core/Src/main.c **** 
 197:Core/Src/main.c ****     memcpy(webhid_tx_buf, adc_values, sizeof(adc_values));
 969              		.loc 1 197 5 is_stmt 1 view .LVU282
 970 0110 DFF858C0 		ldr	ip, .L83+24
 971 0114 6446     		mov	r4, ip
 972 0116 0F4D     		ldr	r5, .L83
 973 0118 0FCD     		ldmia	r5!, {r0, r1, r2, r3}
 974 011a 0FC4     		stmia	r4!, {r0, r1, r2, r3}
 975 011c 0FCD     		ldmia	r5!, {r0, r1, r2, r3}
 976 011e 0FC4     		stmia	r4!, {r0, r1, r2, r3}
 977 0120 95E80300 		ldm	r5, {r0, r1}
 978 0124 84E80300 		stm	r4, {r0, r1}
 198:Core/Src/main.c ****     USBD_WebHID_SendReport(&hUsbDeviceFS, webhid_tx_buf, 64);
 979              		.loc 1 198 5 view .LVU283
 980 0128 4022     		movs	r2, #64
 981 012a 6146     		mov	r1, ip
 982 012c 0E48     		ldr	r0, .L83+20
 983 012e FFF7FEFF 		bl	USBD_WebHID_SendReport
 984              	.LVL93:
 199:Core/Src/main.c **** }
 985              		.loc 1 199 1 is_stmt 0 view .LVU284
 986 0132 BDE8F883 		pop	{r3, r4, r5, r6, r7, r8, r9, pc}
 987              	.LVL94:
 988              	.L82:
 192:Core/Src/main.c ****         if (USBD_HID_SendReport(&hUsbDeviceFS, (uint8_t*)&current_report, sizeof(current_report)) =
 989              		.loc 1 192 9 is_stmt 1 view .LVU285
 192:Core/Src/main.c ****         if (USBD_HID_SendReport(&hUsbDeviceFS, (uint8_t*)&current_report, sizeof(current_report)) =
ARM GAS  C:\Temp\cc53cUQO.s 			page 24


 990              		.loc 1 192 13 is_stmt 0 view .LVU286
 991 0136 1422     		movs	r2, #20
 992 0138 0949     		ldr	r1, .L83+12
 993 013a 0B48     		ldr	r0, .L83+20
 994 013c FFF7FEFF 		bl	USBD_HID_SendReport
 995              	.LVL95:
 192:Core/Src/main.c ****         if (USBD_HID_SendReport(&hUsbDeviceFS, (uint8_t*)&current_report, sizeof(current_report)) =
 996              		.loc 1 192 12 discriminator 1 view .LVU287
 997 0140 0028     		cmp	r0, #0
 998 0142 E5D1     		bne	.L77
 193:Core/Src/main.c ****         }
 999              		.loc 1 193 13 is_stmt 1 view .LVU288
 193:Core/Src/main.c ****         }
 1000              		.loc 1 193 25 is_stmt 0 view .LVU289
 1001 0144 074C     		ldr	r4, .L83+16
 1002              	.LVL96:
 193:Core/Src/main.c ****         }
 1003              		.loc 1 193 25 view .LVU290
 1004 0146 064D     		ldr	r5, .L83+12
 1005              	.LVL97:
 193:Core/Src/main.c ****         }
 1006              		.loc 1 193 25 view .LVU291
 1007 0148 0FCD     		ldmia	r5!, {r0, r1, r2, r3}
 1008 014a 0FC4     		stmia	r4!, {r0, r1, r2, r3}
 1009 014c 2B68     		ldr	r3, [r5]
 1010 014e 2360     		str	r3, [r4]
 1011 0150 DEE7     		b	.L77
 1012              	.L84:
 1013 0152 00BF     		.align	2
 1014              	.L83:
 1015 0154 00000000 		.word	adc_values
 1016 0158 00000000 		.word	key_active
 1017 015c 00000000 		.word	key_map
 1018 0160 00000000 		.word	current_report
 1019 0164 00000000 		.word	prev_report
 1020 0168 00000000 		.word	hUsbDeviceFS
 1021 016c 00000000 		.word	webhid_tx_buf
 1022              		.cfi_endproc
 1023              	.LFE139:
 1025              		.section	.text.Error_Handler,"ax",%progbits
 1026              		.align	1
 1027              		.global	Error_Handler
 1028              		.syntax unified
 1029              		.thumb
 1030              		.thumb_func
 1032              	Error_Handler:
 1033              	.LFB142:
 200:Core/Src/main.c **** 
 201:Core/Src/main.c **** int main(void) {
 202:Core/Src/main.c ****   HAL_Init(); 
 203:Core/Src/main.c ****   SystemClock_Config(); 
 204:Core/Src/main.c ****   MX_GPIO_Init(); 
 205:Core/Src/main.c ****   MX_ADC2_Init(); 
 206:Core/Src/main.c ****   MX_ADC3_Init(); 
 207:Core/Src/main.c ****   MX_ADC4_Init(); 
 208:Core/Src/main.c ****   MX_USB_DEVICE_Init();
 209:Core/Src/main.c ****   
ARM GAS  C:\Temp\cc53cUQO.s 			page 25


 210:Core/Src/main.c ****   setup(); 
 211:Core/Src/main.c ****   while (1) { 
 212:Core/Src/main.c ****       loop(); 
 213:Core/Src/main.c ****   }
 214:Core/Src/main.c **** }
 215:Core/Src/main.c **** 
 216:Core/Src/main.c **** // ===============================================================================
 217:Core/Src/main.c **** // System Clock Configuration (修正: 16MHzクリスタル用)
 218:Core/Src/main.c **** // ===============================================================================
 219:Core/Src/main.c **** void SystemClock_Config(void)
 220:Core/Src/main.c **** {
 221:Core/Src/main.c ****   RCC_OscInitTypeDef RCC_OscInitStruct = {0};
 222:Core/Src/main.c ****   RCC_ClkInitTypeDef RCC_ClkInitStruct = {0};
 223:Core/Src/main.c ****   RCC_PeriphCLKInitTypeDef PeriphClkInit = {0};
 224:Core/Src/main.c **** 
 225:Core/Src/main.c ****   /** Initializes the RCC Oscillators */
 226:Core/Src/main.c ****   RCC_OscInitStruct.OscillatorType = RCC_OSCILLATORTYPE_HSE;
 227:Core/Src/main.c ****   RCC_OscInitStruct.HSEState = RCC_HSE_ON;
 228:Core/Src/main.c ****   
 229:Core/Src/main.c ****   // ★重要: 16MHzを2で割って8MHzにしてPLLに入力
 230:Core/Src/main.c ****   RCC_OscInitStruct.HSEPredivValue = RCC_HSE_PREDIV_DIV2; 
 231:Core/Src/main.c ****   
 232:Core/Src/main.c ****   RCC_OscInitStruct.HSIState = RCC_HSI_ON;
 233:Core/Src/main.c ****   RCC_OscInitStruct.PLL.PLLState = RCC_PLL_ON;
 234:Core/Src/main.c ****   RCC_OscInitStruct.PLL.PLLSource = RCC_PLLSOURCE_HSE;
 235:Core/Src/main.c ****   RCC_OscInitStruct.PLL.PLLMUL = RCC_PLL_MUL9; // 8MHz * 9 = 72MHz
 236:Core/Src/main.c ****   if (HAL_RCC_OscConfig(&RCC_OscInitStruct) != HAL_OK)
 237:Core/Src/main.c ****   {
 238:Core/Src/main.c ****     Error_Handler();
 239:Core/Src/main.c ****   }
 240:Core/Src/main.c **** 
 241:Core/Src/main.c ****   /** Initializes the CPU, AHB and APB buses clocks */
 242:Core/Src/main.c ****   RCC_ClkInitStruct.ClockType = RCC_CLOCKTYPE_HCLK|RCC_CLOCKTYPE_SYSCLK
 243:Core/Src/main.c ****                               |RCC_CLOCKTYPE_PCLK1|RCC_CLOCKTYPE_PCLK2;
 244:Core/Src/main.c ****   RCC_ClkInitStruct.SYSCLKSource = RCC_SYSCLKSOURCE_PLLCLK;
 245:Core/Src/main.c ****   RCC_ClkInitStruct.AHBCLKDivider = RCC_SYSCLK_DIV1;
 246:Core/Src/main.c ****   RCC_ClkInitStruct.APB1CLKDivider = RCC_HCLK_DIV2;
 247:Core/Src/main.c ****   RCC_ClkInitStruct.APB2CLKDivider = RCC_HCLK_DIV1;
 248:Core/Src/main.c **** 
 249:Core/Src/main.c ****   if (HAL_RCC_ClockConfig(&RCC_ClkInitStruct, FLASH_LATENCY_2) != HAL_OK)
 250:Core/Src/main.c ****   {
 251:Core/Src/main.c ****     Error_Handler();
 252:Core/Src/main.c ****   }
 253:Core/Src/main.c **** 
 254:Core/Src/main.c ****   PeriphClkInit.PeriphClockSelection = RCC_PERIPHCLK_USB|RCC_PERIPHCLK_ADC12
 255:Core/Src/main.c ****                               |RCC_PERIPHCLK_ADC34;
 256:Core/Src/main.c ****   PeriphClkInit.Adc12ClockSelection = RCC_ADC12PLLCLK_DIV1;
 257:Core/Src/main.c ****   PeriphClkInit.Adc34ClockSelection = RCC_ADC34PLLCLK_DIV1;
 258:Core/Src/main.c ****   PeriphClkInit.USBClockSelection = RCC_USBCLKSOURCE_PLL_DIV1_5; // 72MHz / 1.5 = 48MHz
 259:Core/Src/main.c **** 
 260:Core/Src/main.c ****   if (HAL_RCCEx_PeriphCLKConfig(&PeriphClkInit) != HAL_OK)
 261:Core/Src/main.c ****   {
 262:Core/Src/main.c ****     Error_Handler();
 263:Core/Src/main.c ****   }
 264:Core/Src/main.c **** }
 265:Core/Src/main.c **** 
 266:Core/Src/main.c **** void Error_Handler(void)
ARM GAS  C:\Temp\cc53cUQO.s 			page 26


 267:Core/Src/main.c **** {
 1034              		.loc 1 267 1 is_stmt 1 view -0
 1035              		.cfi_startproc
 1036              		@ Volatile: function does not return.
 1037              		@ args = 0, pretend = 0, frame = 0
 1038              		@ frame_needed = 0, uses_anonymous_args = 0
 1039              		@ link register save eliminated.
 268:Core/Src/main.c ****   __disable_irq();
 1040              		.loc 1 268 3 view .LVU293
 1041              	.LBB16:
 1042              	.LBI16:
 1043              		.file 2 "Drivers/CMSIS/Include/cmsis_gcc.h"
   1:Drivers/CMSIS/Include/cmsis_gcc.h **** /**************************************************************************//**
   2:Drivers/CMSIS/Include/cmsis_gcc.h ****  * @file     cmsis_gcc.h
   3:Drivers/CMSIS/Include/cmsis_gcc.h ****  * @brief    CMSIS compiler GCC header file
   4:Drivers/CMSIS/Include/cmsis_gcc.h ****  * @version  V5.0.4
   5:Drivers/CMSIS/Include/cmsis_gcc.h ****  * @date     09. April 2018
   6:Drivers/CMSIS/Include/cmsis_gcc.h ****  ******************************************************************************/
   7:Drivers/CMSIS/Include/cmsis_gcc.h **** /*
   8:Drivers/CMSIS/Include/cmsis_gcc.h ****  * Copyright (c) 2009-2018 Arm Limited. All rights reserved.
   9:Drivers/CMSIS/Include/cmsis_gcc.h ****  *
  10:Drivers/CMSIS/Include/cmsis_gcc.h ****  * SPDX-License-Identifier: Apache-2.0
  11:Drivers/CMSIS/Include/cmsis_gcc.h ****  *
  12:Drivers/CMSIS/Include/cmsis_gcc.h ****  * Licensed under the Apache License, Version 2.0 (the License); you may
  13:Drivers/CMSIS/Include/cmsis_gcc.h ****  * not use this file except in compliance with the License.
  14:Drivers/CMSIS/Include/cmsis_gcc.h ****  * You may obtain a copy of the License at
  15:Drivers/CMSIS/Include/cmsis_gcc.h ****  *
  16:Drivers/CMSIS/Include/cmsis_gcc.h ****  * www.apache.org/licenses/LICENSE-2.0
  17:Drivers/CMSIS/Include/cmsis_gcc.h ****  *
  18:Drivers/CMSIS/Include/cmsis_gcc.h ****  * Unless required by applicable law or agreed to in writing, software
  19:Drivers/CMSIS/Include/cmsis_gcc.h ****  * distributed under the License is distributed on an AS IS BASIS, WITHOUT
  20:Drivers/CMSIS/Include/cmsis_gcc.h ****  * WARRANTIES OR CONDITIONS OF ANY KIND, either express or implied.
  21:Drivers/CMSIS/Include/cmsis_gcc.h ****  * See the License for the specific language governing permissions and
  22:Drivers/CMSIS/Include/cmsis_gcc.h ****  * limitations under the License.
  23:Drivers/CMSIS/Include/cmsis_gcc.h ****  */
  24:Drivers/CMSIS/Include/cmsis_gcc.h **** 
  25:Drivers/CMSIS/Include/cmsis_gcc.h **** #ifndef __CMSIS_GCC_H
  26:Drivers/CMSIS/Include/cmsis_gcc.h **** #define __CMSIS_GCC_H
  27:Drivers/CMSIS/Include/cmsis_gcc.h **** 
  28:Drivers/CMSIS/Include/cmsis_gcc.h **** /* ignore some GCC warnings */
  29:Drivers/CMSIS/Include/cmsis_gcc.h **** #pragma GCC diagnostic push
  30:Drivers/CMSIS/Include/cmsis_gcc.h **** #pragma GCC diagnostic ignored "-Wsign-conversion"
  31:Drivers/CMSIS/Include/cmsis_gcc.h **** #pragma GCC diagnostic ignored "-Wconversion"
  32:Drivers/CMSIS/Include/cmsis_gcc.h **** #pragma GCC diagnostic ignored "-Wunused-parameter"
  33:Drivers/CMSIS/Include/cmsis_gcc.h **** 
  34:Drivers/CMSIS/Include/cmsis_gcc.h **** /* Fallback for __has_builtin */
  35:Drivers/CMSIS/Include/cmsis_gcc.h **** #ifndef __has_builtin
  36:Drivers/CMSIS/Include/cmsis_gcc.h ****   #define __has_builtin(x) (0)
  37:Drivers/CMSIS/Include/cmsis_gcc.h **** #endif
  38:Drivers/CMSIS/Include/cmsis_gcc.h **** 
  39:Drivers/CMSIS/Include/cmsis_gcc.h **** /* CMSIS compiler specific defines */
  40:Drivers/CMSIS/Include/cmsis_gcc.h **** #ifndef   __ASM
  41:Drivers/CMSIS/Include/cmsis_gcc.h ****   #define __ASM                                  __asm
  42:Drivers/CMSIS/Include/cmsis_gcc.h **** #endif
  43:Drivers/CMSIS/Include/cmsis_gcc.h **** #ifndef   __INLINE
  44:Drivers/CMSIS/Include/cmsis_gcc.h ****   #define __INLINE                               inline
  45:Drivers/CMSIS/Include/cmsis_gcc.h **** #endif
ARM GAS  C:\Temp\cc53cUQO.s 			page 27


  46:Drivers/CMSIS/Include/cmsis_gcc.h **** #ifndef   __STATIC_INLINE
  47:Drivers/CMSIS/Include/cmsis_gcc.h ****   #define __STATIC_INLINE                        static inline
  48:Drivers/CMSIS/Include/cmsis_gcc.h **** #endif
  49:Drivers/CMSIS/Include/cmsis_gcc.h **** #ifndef   __STATIC_FORCEINLINE                 
  50:Drivers/CMSIS/Include/cmsis_gcc.h ****   #define __STATIC_FORCEINLINE                   __attribute__((always_inline)) static inline
  51:Drivers/CMSIS/Include/cmsis_gcc.h **** #endif                                           
  52:Drivers/CMSIS/Include/cmsis_gcc.h **** #ifndef   __NO_RETURN
  53:Drivers/CMSIS/Include/cmsis_gcc.h ****   #define __NO_RETURN                            __attribute__((__noreturn__))
  54:Drivers/CMSIS/Include/cmsis_gcc.h **** #endif
  55:Drivers/CMSIS/Include/cmsis_gcc.h **** #ifndef   __USED
  56:Drivers/CMSIS/Include/cmsis_gcc.h ****   #define __USED                                 __attribute__((used))
  57:Drivers/CMSIS/Include/cmsis_gcc.h **** #endif
  58:Drivers/CMSIS/Include/cmsis_gcc.h **** #ifndef   __WEAK
  59:Drivers/CMSIS/Include/cmsis_gcc.h ****   #define __WEAK                                 __attribute__((weak))
  60:Drivers/CMSIS/Include/cmsis_gcc.h **** #endif
  61:Drivers/CMSIS/Include/cmsis_gcc.h **** #ifndef   __PACKED
  62:Drivers/CMSIS/Include/cmsis_gcc.h ****   #define __PACKED                               __attribute__((packed, aligned(1)))
  63:Drivers/CMSIS/Include/cmsis_gcc.h **** #endif
  64:Drivers/CMSIS/Include/cmsis_gcc.h **** #ifndef   __PACKED_STRUCT
  65:Drivers/CMSIS/Include/cmsis_gcc.h ****   #define __PACKED_STRUCT                        struct __attribute__((packed, aligned(1)))
  66:Drivers/CMSIS/Include/cmsis_gcc.h **** #endif
  67:Drivers/CMSIS/Include/cmsis_gcc.h **** #ifndef   __PACKED_UNION
  68:Drivers/CMSIS/Include/cmsis_gcc.h ****   #define __PACKED_UNION                         union __attribute__((packed, aligned(1)))
  69:Drivers/CMSIS/Include/cmsis_gcc.h **** #endif
  70:Drivers/CMSIS/Include/cmsis_gcc.h **** #ifndef   __UNALIGNED_UINT32        /* deprecated */
  71:Drivers/CMSIS/Include/cmsis_gcc.h ****   #pragma GCC diagnostic push
  72:Drivers/CMSIS/Include/cmsis_gcc.h ****   #pragma GCC diagnostic ignored "-Wpacked"
  73:Drivers/CMSIS/Include/cmsis_gcc.h ****   #pragma GCC diagnostic ignored "-Wattributes"
  74:Drivers/CMSIS/Include/cmsis_gcc.h ****   struct __attribute__((packed)) T_UINT32 { uint32_t v; };
  75:Drivers/CMSIS/Include/cmsis_gcc.h ****   #pragma GCC diagnostic pop
  76:Drivers/CMSIS/Include/cmsis_gcc.h ****   #define __UNALIGNED_UINT32(x)                  (((struct T_UINT32 *)(x))->v)
  77:Drivers/CMSIS/Include/cmsis_gcc.h **** #endif
  78:Drivers/CMSIS/Include/cmsis_gcc.h **** #ifndef   __UNALIGNED_UINT16_WRITE
  79:Drivers/CMSIS/Include/cmsis_gcc.h ****   #pragma GCC diagnostic push
  80:Drivers/CMSIS/Include/cmsis_gcc.h ****   #pragma GCC diagnostic ignored "-Wpacked"
  81:Drivers/CMSIS/Include/cmsis_gcc.h ****   #pragma GCC diagnostic ignored "-Wattributes"
  82:Drivers/CMSIS/Include/cmsis_gcc.h ****   __PACKED_STRUCT T_UINT16_WRITE { uint16_t v; };
  83:Drivers/CMSIS/Include/cmsis_gcc.h ****   #pragma GCC diagnostic pop
  84:Drivers/CMSIS/Include/cmsis_gcc.h ****   #define __UNALIGNED_UINT16_WRITE(addr, val)    (void)((((struct T_UINT16_WRITE *)(void *)(addr))-
  85:Drivers/CMSIS/Include/cmsis_gcc.h **** #endif
  86:Drivers/CMSIS/Include/cmsis_gcc.h **** #ifndef   __UNALIGNED_UINT16_READ
  87:Drivers/CMSIS/Include/cmsis_gcc.h ****   #pragma GCC diagnostic push
  88:Drivers/CMSIS/Include/cmsis_gcc.h ****   #pragma GCC diagnostic ignored "-Wpacked"
  89:Drivers/CMSIS/Include/cmsis_gcc.h ****   #pragma GCC diagnostic ignored "-Wattributes"
  90:Drivers/CMSIS/Include/cmsis_gcc.h ****   __PACKED_STRUCT T_UINT16_READ { uint16_t v; };
  91:Drivers/CMSIS/Include/cmsis_gcc.h ****   #pragma GCC diagnostic pop
  92:Drivers/CMSIS/Include/cmsis_gcc.h ****   #define __UNALIGNED_UINT16_READ(addr)          (((const struct T_UINT16_READ *)(const void *)(add
  93:Drivers/CMSIS/Include/cmsis_gcc.h **** #endif
  94:Drivers/CMSIS/Include/cmsis_gcc.h **** #ifndef   __UNALIGNED_UINT32_WRITE
  95:Drivers/CMSIS/Include/cmsis_gcc.h ****   #pragma GCC diagnostic push
  96:Drivers/CMSIS/Include/cmsis_gcc.h ****   #pragma GCC diagnostic ignored "-Wpacked"
  97:Drivers/CMSIS/Include/cmsis_gcc.h ****   #pragma GCC diagnostic ignored "-Wattributes"
  98:Drivers/CMSIS/Include/cmsis_gcc.h ****   __PACKED_STRUCT T_UINT32_WRITE { uint32_t v; };
  99:Drivers/CMSIS/Include/cmsis_gcc.h ****   #pragma GCC diagnostic pop
 100:Drivers/CMSIS/Include/cmsis_gcc.h ****   #define __UNALIGNED_UINT32_WRITE(addr, val)    (void)((((struct T_UINT32_WRITE *)(void *)(addr))-
 101:Drivers/CMSIS/Include/cmsis_gcc.h **** #endif
 102:Drivers/CMSIS/Include/cmsis_gcc.h **** #ifndef   __UNALIGNED_UINT32_READ
ARM GAS  C:\Temp\cc53cUQO.s 			page 28


 103:Drivers/CMSIS/Include/cmsis_gcc.h ****   #pragma GCC diagnostic push
 104:Drivers/CMSIS/Include/cmsis_gcc.h ****   #pragma GCC diagnostic ignored "-Wpacked"
 105:Drivers/CMSIS/Include/cmsis_gcc.h ****   #pragma GCC diagnostic ignored "-Wattributes"
 106:Drivers/CMSIS/Include/cmsis_gcc.h ****   __PACKED_STRUCT T_UINT32_READ { uint32_t v; };
 107:Drivers/CMSIS/Include/cmsis_gcc.h ****   #pragma GCC diagnostic pop
 108:Drivers/CMSIS/Include/cmsis_gcc.h ****   #define __UNALIGNED_UINT32_READ(addr)          (((const struct T_UINT32_READ *)(const void *)(add
 109:Drivers/CMSIS/Include/cmsis_gcc.h **** #endif
 110:Drivers/CMSIS/Include/cmsis_gcc.h **** #ifndef   __ALIGNED
 111:Drivers/CMSIS/Include/cmsis_gcc.h ****   #define __ALIGNED(x)                           __attribute__((aligned(x)))
 112:Drivers/CMSIS/Include/cmsis_gcc.h **** #endif
 113:Drivers/CMSIS/Include/cmsis_gcc.h **** #ifndef   __RESTRICT
 114:Drivers/CMSIS/Include/cmsis_gcc.h ****   #define __RESTRICT                             __restrict
 115:Drivers/CMSIS/Include/cmsis_gcc.h **** #endif
 116:Drivers/CMSIS/Include/cmsis_gcc.h **** 
 117:Drivers/CMSIS/Include/cmsis_gcc.h **** 
 118:Drivers/CMSIS/Include/cmsis_gcc.h **** /* ###########################  Core Function Access  ########################### */
 119:Drivers/CMSIS/Include/cmsis_gcc.h **** /** \ingroup  CMSIS_Core_FunctionInterface
 120:Drivers/CMSIS/Include/cmsis_gcc.h ****     \defgroup CMSIS_Core_RegAccFunctions CMSIS Core Register Access Functions
 121:Drivers/CMSIS/Include/cmsis_gcc.h ****   @{
 122:Drivers/CMSIS/Include/cmsis_gcc.h ****  */
 123:Drivers/CMSIS/Include/cmsis_gcc.h **** 
 124:Drivers/CMSIS/Include/cmsis_gcc.h **** /**
 125:Drivers/CMSIS/Include/cmsis_gcc.h ****   \brief   Enable IRQ Interrupts
 126:Drivers/CMSIS/Include/cmsis_gcc.h ****   \details Enables IRQ interrupts by clearing the I-bit in the CPSR.
 127:Drivers/CMSIS/Include/cmsis_gcc.h ****            Can only be executed in Privileged modes.
 128:Drivers/CMSIS/Include/cmsis_gcc.h ****  */
 129:Drivers/CMSIS/Include/cmsis_gcc.h **** __STATIC_FORCEINLINE void __enable_irq(void)
 130:Drivers/CMSIS/Include/cmsis_gcc.h **** {
 131:Drivers/CMSIS/Include/cmsis_gcc.h ****   __ASM volatile ("cpsie i" : : : "memory");
 132:Drivers/CMSIS/Include/cmsis_gcc.h **** }
 133:Drivers/CMSIS/Include/cmsis_gcc.h **** 
 134:Drivers/CMSIS/Include/cmsis_gcc.h **** 
 135:Drivers/CMSIS/Include/cmsis_gcc.h **** /**
 136:Drivers/CMSIS/Include/cmsis_gcc.h ****   \brief   Disable IRQ Interrupts
 137:Drivers/CMSIS/Include/cmsis_gcc.h ****   \details Disables IRQ interrupts by setting the I-bit in the CPSR.
 138:Drivers/CMSIS/Include/cmsis_gcc.h ****            Can only be executed in Privileged modes.
 139:Drivers/CMSIS/Include/cmsis_gcc.h ****  */
 140:Drivers/CMSIS/Include/cmsis_gcc.h **** __STATIC_FORCEINLINE void __disable_irq(void)
 1044              		.loc 2 140 27 view .LVU294
 1045              	.LBB17:
 141:Drivers/CMSIS/Include/cmsis_gcc.h **** {
 142:Drivers/CMSIS/Include/cmsis_gcc.h ****   __ASM volatile ("cpsid i" : : : "memory");
 1046              		.loc 2 142 3 view .LVU295
 1047              		.syntax unified
 1048              	@ 142 "Drivers/CMSIS/Include/cmsis_gcc.h" 1
 1049 0000 72B6     		cpsid i
 1050              	@ 0 "" 2
 1051              		.thumb
 1052              		.syntax unified
 1053              	.L86:
 1054              	.LBE17:
 1055              	.LBE16:
 269:Core/Src/main.c ****   while (1) { }
 1056              		.loc 1 269 3 view .LVU296
 1057              		.loc 1 269 15 view .LVU297
 1058              		.loc 1 269 9 view .LVU298
 1059 0002 FEE7     		b	.L86
ARM GAS  C:\Temp\cc53cUQO.s 			page 29


 1060              		.cfi_endproc
 1061              	.LFE142:
 1063              		.section	.text.SystemClock_Config,"ax",%progbits
 1064              		.align	1
 1065              		.global	SystemClock_Config
 1066              		.syntax unified
 1067              		.thumb
 1068              		.thumb_func
 1070              	SystemClock_Config:
 1071              	.LFB141:
 220:Core/Src/main.c ****   RCC_OscInitTypeDef RCC_OscInitStruct = {0};
 1072              		.loc 1 220 1 view -0
 1073              		.cfi_startproc
 1074              		@ args = 0, pretend = 0, frame = 120
 1075              		@ frame_needed = 0, uses_anonymous_args = 0
 1076 0000 10B5     		push	{r4, lr}
 1077              	.LCFI7:
 1078              		.cfi_def_cfa_offset 8
 1079              		.cfi_offset 4, -8
 1080              		.cfi_offset 14, -4
 1081 0002 9EB0     		sub	sp, sp, #120
 1082              	.LCFI8:
 1083              		.cfi_def_cfa_offset 128
 221:Core/Src/main.c ****   RCC_ClkInitTypeDef RCC_ClkInitStruct = {0};
 1084              		.loc 1 221 3 view .LVU300
 221:Core/Src/main.c ****   RCC_ClkInitTypeDef RCC_ClkInitStruct = {0};
 1085              		.loc 1 221 22 is_stmt 0 view .LVU301
 1086 0004 14AC     		add	r4, sp, #80
 1087 0006 2822     		movs	r2, #40
 1088 0008 0021     		movs	r1, #0
 1089 000a 2046     		mov	r0, r4
 1090 000c FFF7FEFF 		bl	memset
 1091              	.LVL98:
 222:Core/Src/main.c ****   RCC_PeriphCLKInitTypeDef PeriphClkInit = {0};
 1092              		.loc 1 222 3 is_stmt 1 view .LVU302
 222:Core/Src/main.c ****   RCC_PeriphCLKInitTypeDef PeriphClkInit = {0};
 1093              		.loc 1 222 22 is_stmt 0 view .LVU303
 1094 0010 0021     		movs	r1, #0
 1095 0012 0F91     		str	r1, [sp, #60]
 1096 0014 1091     		str	r1, [sp, #64]
 1097 0016 1191     		str	r1, [sp, #68]
 1098 0018 1291     		str	r1, [sp, #72]
 1099 001a 1391     		str	r1, [sp, #76]
 223:Core/Src/main.c **** 
 1100              		.loc 1 223 3 is_stmt 1 view .LVU304
 223:Core/Src/main.c **** 
 1101              		.loc 1 223 28 is_stmt 0 view .LVU305
 1102 001c 3C22     		movs	r2, #60
 1103 001e 6846     		mov	r0, sp
 1104 0020 FFF7FEFF 		bl	memset
 1105              	.LVL99:
 226:Core/Src/main.c ****   RCC_OscInitStruct.HSEState = RCC_HSE_ON;
 1106              		.loc 1 226 3 is_stmt 1 view .LVU306
 226:Core/Src/main.c ****   RCC_OscInitStruct.HSEState = RCC_HSE_ON;
 1107              		.loc 1 226 36 is_stmt 0 view .LVU307
 1108 0024 0123     		movs	r3, #1
 1109 0026 1493     		str	r3, [sp, #80]
ARM GAS  C:\Temp\cc53cUQO.s 			page 30


 227:Core/Src/main.c ****   
 1110              		.loc 1 227 3 is_stmt 1 view .LVU308
 227:Core/Src/main.c ****   
 1111              		.loc 1 227 30 is_stmt 0 view .LVU309
 1112 0028 4FF48032 		mov	r2, #65536
 1113 002c 1592     		str	r2, [sp, #84]
 230:Core/Src/main.c ****   
 1114              		.loc 1 230 3 is_stmt 1 view .LVU310
 230:Core/Src/main.c ****   
 1115              		.loc 1 230 36 is_stmt 0 view .LVU311
 1116 002e 1693     		str	r3, [sp, #88]
 232:Core/Src/main.c ****   RCC_OscInitStruct.PLL.PLLState = RCC_PLL_ON;
 1117              		.loc 1 232 3 is_stmt 1 view .LVU312
 232:Core/Src/main.c ****   RCC_OscInitStruct.PLL.PLLState = RCC_PLL_ON;
 1118              		.loc 1 232 30 is_stmt 0 view .LVU313
 1119 0030 1893     		str	r3, [sp, #96]
 233:Core/Src/main.c ****   RCC_OscInitStruct.PLL.PLLSource = RCC_PLLSOURCE_HSE;
 1120              		.loc 1 233 3 is_stmt 1 view .LVU314
 233:Core/Src/main.c ****   RCC_OscInitStruct.PLL.PLLSource = RCC_PLLSOURCE_HSE;
 1121              		.loc 1 233 34 is_stmt 0 view .LVU315
 1122 0032 0223     		movs	r3, #2
 1123 0034 1B93     		str	r3, [sp, #108]
 234:Core/Src/main.c ****   RCC_OscInitStruct.PLL.PLLMUL = RCC_PLL_MUL9; // 8MHz * 9 = 72MHz
 1124              		.loc 1 234 3 is_stmt 1 view .LVU316
 234:Core/Src/main.c ****   RCC_OscInitStruct.PLL.PLLMUL = RCC_PLL_MUL9; // 8MHz * 9 = 72MHz
 1125              		.loc 1 234 35 is_stmt 0 view .LVU317
 1126 0036 1C92     		str	r2, [sp, #112]
 235:Core/Src/main.c ****   if (HAL_RCC_OscConfig(&RCC_OscInitStruct) != HAL_OK)
 1127              		.loc 1 235 3 is_stmt 1 view .LVU318
 235:Core/Src/main.c ****   if (HAL_RCC_OscConfig(&RCC_OscInitStruct) != HAL_OK)
 1128              		.loc 1 235 32 is_stmt 0 view .LVU319
 1129 0038 4FF4E013 		mov	r3, #1835008
 1130 003c 1D93     		str	r3, [sp, #116]
 236:Core/Src/main.c ****   {
 1131              		.loc 1 236 3 is_stmt 1 view .LVU320
 236:Core/Src/main.c ****   {
 1132              		.loc 1 236 7 is_stmt 0 view .LVU321
 1133 003e 2046     		mov	r0, r4
 1134 0040 FFF7FEFF 		bl	HAL_RCC_OscConfig
 1135              	.LVL100:
 236:Core/Src/main.c ****   {
 1136              		.loc 1 236 6 discriminator 1 view .LVU322
 1137 0044 D8B9     		cbnz	r0, .L92
 242:Core/Src/main.c ****                               |RCC_CLOCKTYPE_PCLK1|RCC_CLOCKTYPE_PCLK2;
 1138              		.loc 1 242 3 is_stmt 1 view .LVU323
 242:Core/Src/main.c ****                               |RCC_CLOCKTYPE_PCLK1|RCC_CLOCKTYPE_PCLK2;
 1139              		.loc 1 242 31 is_stmt 0 view .LVU324
 1140 0046 0F23     		movs	r3, #15
 1141 0048 0F93     		str	r3, [sp, #60]
 244:Core/Src/main.c ****   RCC_ClkInitStruct.AHBCLKDivider = RCC_SYSCLK_DIV1;
 1142              		.loc 1 244 3 is_stmt 1 view .LVU325
 244:Core/Src/main.c ****   RCC_ClkInitStruct.AHBCLKDivider = RCC_SYSCLK_DIV1;
 1143              		.loc 1 244 34 is_stmt 0 view .LVU326
 1144 004a 0221     		movs	r1, #2
 1145 004c 1091     		str	r1, [sp, #64]
 245:Core/Src/main.c ****   RCC_ClkInitStruct.APB1CLKDivider = RCC_HCLK_DIV2;
 1146              		.loc 1 245 3 is_stmt 1 view .LVU327
ARM GAS  C:\Temp\cc53cUQO.s 			page 31


 245:Core/Src/main.c ****   RCC_ClkInitStruct.APB1CLKDivider = RCC_HCLK_DIV2;
 1147              		.loc 1 245 35 is_stmt 0 view .LVU328
 1148 004e 1190     		str	r0, [sp, #68]
 246:Core/Src/main.c ****   RCC_ClkInitStruct.APB2CLKDivider = RCC_HCLK_DIV1;
 1149              		.loc 1 246 3 is_stmt 1 view .LVU329
 246:Core/Src/main.c ****   RCC_ClkInitStruct.APB2CLKDivider = RCC_HCLK_DIV1;
 1150              		.loc 1 246 36 is_stmt 0 view .LVU330
 1151 0050 4FF48062 		mov	r2, #1024
 1152 0054 1292     		str	r2, [sp, #72]
 247:Core/Src/main.c **** 
 1153              		.loc 1 247 3 is_stmt 1 view .LVU331
 247:Core/Src/main.c **** 
 1154              		.loc 1 247 36 is_stmt 0 view .LVU332
 1155 0056 1390     		str	r0, [sp, #76]
 249:Core/Src/main.c ****   {
 1156              		.loc 1 249 3 is_stmt 1 view .LVU333
 249:Core/Src/main.c ****   {
 1157              		.loc 1 249 7 is_stmt 0 view .LVU334
 1158 0058 0FA8     		add	r0, sp, #60
 1159 005a FFF7FEFF 		bl	HAL_RCC_ClockConfig
 1160              	.LVL101:
 249:Core/Src/main.c ****   {
 1161              		.loc 1 249 6 discriminator 1 view .LVU335
 1162 005e 80B9     		cbnz	r0, .L93
 254:Core/Src/main.c ****                               |RCC_PERIPHCLK_ADC34;
 1163              		.loc 1 254 3 is_stmt 1 view .LVU336
 254:Core/Src/main.c ****                               |RCC_PERIPHCLK_ADC34;
 1164              		.loc 1 254 38 is_stmt 0 view .LVU337
 1165 0060 0A4B     		ldr	r3, .L95
 1166 0062 0093     		str	r3, [sp]
 256:Core/Src/main.c ****   PeriphClkInit.Adc34ClockSelection = RCC_ADC34PLLCLK_DIV1;
 1167              		.loc 1 256 3 is_stmt 1 view .LVU338
 256:Core/Src/main.c ****   PeriphClkInit.Adc34ClockSelection = RCC_ADC34PLLCLK_DIV1;
 1168              		.loc 1 256 37 is_stmt 0 view .LVU339
 1169 0064 4FF48073 		mov	r3, #256
 1170 0068 0993     		str	r3, [sp, #36]
 257:Core/Src/main.c ****   PeriphClkInit.USBClockSelection = RCC_USBCLKSOURCE_PLL_DIV1_5; // 72MHz / 1.5 = 48MHz
 1171              		.loc 1 257 3 is_stmt 1 view .LVU340
 257:Core/Src/main.c ****   PeriphClkInit.USBClockSelection = RCC_USBCLKSOURCE_PLL_DIV1_5; // 72MHz / 1.5 = 48MHz
 1172              		.loc 1 257 37 is_stmt 0 view .LVU341
 1173 006a 4FF40053 		mov	r3, #8192
 1174 006e 0A93     		str	r3, [sp, #40]
 258:Core/Src/main.c **** 
 1175              		.loc 1 258 3 is_stmt 1 view .LVU342
 258:Core/Src/main.c **** 
 1176              		.loc 1 258 35 is_stmt 0 view .LVU343
 1177 0070 0E90     		str	r0, [sp, #56]
 260:Core/Src/main.c ****   {
 1178              		.loc 1 260 3 is_stmt 1 view .LVU344
 260:Core/Src/main.c ****   {
 1179              		.loc 1 260 7 is_stmt 0 view .LVU345
 1180 0072 6846     		mov	r0, sp
 1181 0074 FFF7FEFF 		bl	HAL_RCCEx_PeriphCLKConfig
 1182              	.LVL102:
 260:Core/Src/main.c ****   {
 1183              		.loc 1 260 6 discriminator 1 view .LVU346
 1184 0078 28B9     		cbnz	r0, .L94
ARM GAS  C:\Temp\cc53cUQO.s 			page 32


 264:Core/Src/main.c **** 
 1185              		.loc 1 264 1 view .LVU347
 1186 007a 1EB0     		add	sp, sp, #120
 1187              	.LCFI9:
 1188              		.cfi_remember_state
 1189              		.cfi_def_cfa_offset 8
 1190              		@ sp needed
 1191 007c 10BD     		pop	{r4, pc}
 1192              	.L92:
 1193              	.LCFI10:
 1194              		.cfi_restore_state
 238:Core/Src/main.c ****   }
 1195              		.loc 1 238 5 is_stmt 1 view .LVU348
 1196 007e FFF7FEFF 		bl	Error_Handler
 1197              	.LVL103:
 1198              	.L93:
 251:Core/Src/main.c ****   }
 1199              		.loc 1 251 5 view .LVU349
 1200 0082 FFF7FEFF 		bl	Error_Handler
 1201              	.LVL104:
 1202              	.L94:
 262:Core/Src/main.c ****   }
 1203              		.loc 1 262 5 view .LVU350
 1204 0086 FFF7FEFF 		bl	Error_Handler
 1205              	.LVL105:
 1206              	.L96:
 1207 008a 00BF     		.align	2
 1208              	.L95:
 1209 008c 80010200 		.word	131456
 1210              		.cfi_endproc
 1211              	.LFE141:
 1213              		.section	.text.main,"ax",%progbits
 1214              		.align	1
 1215              		.global	main
 1216              		.syntax unified
 1217              		.thumb
 1218              		.thumb_func
 1220              	main:
 1221              	.LFB140:
 201:Core/Src/main.c ****   HAL_Init(); 
 1222              		.loc 1 201 16 view -0
 1223              		.cfi_startproc
 1224              		@ Volatile: function does not return.
 1225              		@ args = 0, pretend = 0, frame = 0
 1226              		@ frame_needed = 0, uses_anonymous_args = 0
 1227 0000 08B5     		push	{r3, lr}
 1228              	.LCFI11:
 1229              		.cfi_def_cfa_offset 8
 1230              		.cfi_offset 3, -8
 1231              		.cfi_offset 14, -4
 202:Core/Src/main.c ****   SystemClock_Config(); 
 1232              		.loc 1 202 3 view .LVU352
 1233 0002 FFF7FEFF 		bl	HAL_Init
 1234              	.LVL106:
 203:Core/Src/main.c ****   MX_GPIO_Init(); 
 1235              		.loc 1 203 3 view .LVU353
 1236 0006 FFF7FEFF 		bl	SystemClock_Config
ARM GAS  C:\Temp\cc53cUQO.s 			page 33


 1237              	.LVL107:
 204:Core/Src/main.c ****   MX_ADC2_Init(); 
 1238              		.loc 1 204 3 view .LVU354
 1239 000a FFF7FEFF 		bl	MX_GPIO_Init
 1240              	.LVL108:
 205:Core/Src/main.c ****   MX_ADC3_Init(); 
 1241              		.loc 1 205 3 view .LVU355
 1242 000e FFF7FEFF 		bl	MX_ADC2_Init
 1243              	.LVL109:
 206:Core/Src/main.c ****   MX_ADC4_Init(); 
 1244              		.loc 1 206 3 view .LVU356
 1245 0012 FFF7FEFF 		bl	MX_ADC3_Init
 1246              	.LVL110:
 207:Core/Src/main.c ****   MX_USB_DEVICE_Init();
 1247              		.loc 1 207 3 view .LVU357
 1248 0016 FFF7FEFF 		bl	MX_ADC4_Init
 1249              	.LVL111:
 208:Core/Src/main.c ****   
 1250              		.loc 1 208 3 view .LVU358
 1251 001a FFF7FEFF 		bl	MX_USB_DEVICE_Init
 1252              	.LVL112:
 210:Core/Src/main.c ****   while (1) { 
 1253              		.loc 1 210 3 view .LVU359
 1254 001e FFF7FEFF 		bl	setup
 1255              	.LVL113:
 1256              	.L98:
 211:Core/Src/main.c ****       loop(); 
 1257              		.loc 1 211 3 view .LVU360
 212:Core/Src/main.c ****   }
 1258              		.loc 1 212 7 discriminator 2 view .LVU361
 1259 0022 FFF7FEFF 		bl	loop
 1260              	.LVL114:
 211:Core/Src/main.c ****       loop(); 
 1261              		.loc 1 211 9 view .LVU362
 1262 0026 FCE7     		b	.L98
 1263              		.cfi_endproc
 1264              	.LFE140:
 1266              		.global	webhid_tx_buf
 1267              		.section	.bss.webhid_tx_buf,"aw",%nobits
 1268              		.align	2
 1271              	webhid_tx_buf:
 1272 0000 00000000 		.space	64
 1272      00000000 
 1272      00000000 
 1272      00000000 
 1272      00000000 
 1273              		.global	prev_report
 1274              		.section	.bss.prev_report,"aw",%nobits
 1275              		.align	2
 1278              	prev_report:
 1279 0000 00000000 		.space	20
 1279      00000000 
 1279      00000000 
 1279      00000000 
 1279      00000000 
 1280              		.global	current_report
 1281              		.section	.bss.current_report,"aw",%nobits
ARM GAS  C:\Temp\cc53cUQO.s 			page 34


 1282              		.align	2
 1285              	current_report:
 1286 0000 00000000 		.space	20
 1286      00000000 
 1286      00000000 
 1286      00000000 
 1286      00000000 
 1287              		.global	key_rt_states
 1288              		.section	.bss.key_rt_states,"aw",%nobits
 1289              		.align	2
 1292              	key_rt_states:
 1293 0000 00000000 		.space	80
 1293      00000000 
 1293      00000000 
 1293      00000000 
 1293      00000000 
 1294              		.global	key_active
 1295              		.section	.bss.key_active,"aw",%nobits
 1296              		.align	2
 1299              	key_active:
 1300 0000 00000000 		.space	20
 1300      00000000 
 1300      00000000 
 1300      00000000 
 1300      00000000 
 1301              		.global	startup_values
 1302              		.section	.bss.startup_values,"aw",%nobits
 1303              		.align	2
 1306              	startup_values:
 1307 0000 00000000 		.space	40
 1307      00000000 
 1307      00000000 
 1307      00000000 
 1307      00000000 
 1308              		.global	adc_values
 1309              		.section	.bss.adc_values,"aw",%nobits
 1310              		.align	2
 1313              	adc_values:
 1314 0000 00000000 		.space	40
 1314      00000000 
 1314      00000000 
 1314      00000000 
 1314      00000000 
 1315              		.global	key_map
 1316              		.section	.data.key_map,"aw"
 1317              		.align	2
 1320              	key_map:
 1321 0000 03010213 		.ascii	"\003\001\002\023\013\012\022\021\020\017\016\015\014"
 1321      0B0A1211 
 1321      100F0E0D 
 1321      0C
 1322 000d 06070809 		.ascii	"\006\007\010\011\005\000\004"
 1322      050004
 1323              		.text
 1324              	.Letext0:
 1325              		.file 3 "C:/TOOL/arm-none-eabi/include/machine/_default_types.h"
 1326              		.file 4 "C:/TOOL/arm-none-eabi/include/sys/_stdint.h"
ARM GAS  C:\Temp\cc53cUQO.s 			page 35


 1327              		.file 5 "Drivers/CMSIS/Device/ST/STM32F3xx/Include/stm32f303xc.h"
 1328              		.file 6 "Drivers/CMSIS/Device/ST/STM32F3xx/Include/stm32f3xx.h"
 1329              		.file 7 "Drivers/STM32F3xx_HAL_Driver/Inc/stm32f3xx_hal_def.h"
 1330              		.file 8 "Drivers/STM32F3xx_HAL_Driver/Inc/stm32f3xx_hal_rcc.h"
 1331              		.file 9 "Drivers/STM32F3xx_HAL_Driver/Inc/stm32f3xx_hal_rcc_ex.h"
 1332              		.file 10 "Drivers/STM32F3xx_HAL_Driver/Inc/stm32f3xx_hal_gpio.h"
 1333              		.file 11 "Drivers/STM32F3xx_HAL_Driver/Inc/stm32f3xx_hal_dma.h"
 1334              		.file 12 "Drivers/STM32F3xx_HAL_Driver/Inc/stm32f3xx_hal_adc_ex.h"
 1335              		.file 13 "Drivers/STM32F3xx_HAL_Driver/Inc/stm32f3xx_hal_adc.h"
 1336              		.file 14 "Core/Inc/adc.h"
 1337              		.file 15 "Middlewares/ST/STM32_USB_Device_Library/Core/Inc/usbd_def.h"
 1338              		.file 16 "USB_DEVICE/App/usb_device.h"
 1339              		.file 17 "Core/Inc/gpio.h"
 1340              		.file 18 "Middlewares/ST/STM32_USB_Device_Library/Class/HID/Inc/usbd_hid.h"
 1341              		.file 19 "C:/TOOL/arm-none-eabi/include/string.h"
 1342              		.file 20 "Drivers/STM32F3xx_HAL_Driver/Inc/stm32f3xx_hal.h"
 1343              		.file 21 "<built-in>"
ARM GAS  C:\Temp\cc53cUQO.s 			page 36

