ARM GAS  C:\Temp\ccgG4KLl.s 			page 1


   1              		.cpu cortex-m4
   2              		.arch armv7e-m
   3              		.fpu fpv4-sp-d16
   4              		.eabi_attribute 27, 1
   5              		.eabi_attribute 28, 1
   6              		.eabi_attribute 20, 1
   7              		.eabi_attribute 21, 1
   8              		.eabi_attribute 23, 3
   9              		.eabi_attribute 24, 1
  10              		.eabi_attribute 25, 1
  11              		.eabi_attribute 26, 1
  12              		.eabi_attribute 30, 1
  13              		.eabi_attribute 34, 1
  14              		.eabi_attribute 18, 4
  15              		.file	"usbd_desc.c"
  16              		.text
  17              	.Ltext0:
  18              		.cfi_sections	.debug_frame
  19              		.file 1 "USB_DEVICE/App/usbd_desc.c"
  20              		.section	.text.USBD_FS_DeviceDescriptor,"ax",%progbits
  21              		.align	1
  22              		.global	USBD_FS_DeviceDescriptor
  23              		.syntax unified
  24              		.thumb
  25              		.thumb_func
  27              	USBD_FS_DeviceDescriptor:
  28              	.LVL0:
  29              	.LFB133:
   1:USB_DEVICE/App/usbd_desc.c **** /* USER CODE BEGIN Header */
   2:USB_DEVICE/App/usbd_desc.c **** /**
   3:USB_DEVICE/App/usbd_desc.c ****   ******************************************************************************
   4:USB_DEVICE/App/usbd_desc.c ****   * @file           : App/usbd_desc.c
   5:USB_DEVICE/App/usbd_desc.c ****   * @version        : v2.0_Cube
   6:USB_DEVICE/App/usbd_desc.c ****   * @brief          : This file implements the USB device descriptors.
   7:USB_DEVICE/App/usbd_desc.c ****   ******************************************************************************
   8:USB_DEVICE/App/usbd_desc.c ****   */
   9:USB_DEVICE/App/usbd_desc.c **** /* USER CODE END Header */
  10:USB_DEVICE/App/usbd_desc.c **** 
  11:USB_DEVICE/App/usbd_desc.c **** /* Includes ------------------------------------------------------------------*/
  12:USB_DEVICE/App/usbd_desc.c **** #include "usbd_core.h"
  13:USB_DEVICE/App/usbd_desc.c **** #include "usbd_desc.h"
  14:USB_DEVICE/App/usbd_desc.c **** #include "usbd_conf.h"
  15:USB_DEVICE/App/usbd_desc.c **** 
  16:USB_DEVICE/App/usbd_desc.c **** /* USER CODE BEGIN INCLUDE */
  17:USB_DEVICE/App/usbd_desc.c **** 
  18:USB_DEVICE/App/usbd_desc.c **** /* USER CODE END INCLUDE */
  19:USB_DEVICE/App/usbd_desc.c **** 
  20:USB_DEVICE/App/usbd_desc.c **** /* Private typedef -----------------------------------------------------------*/
  21:USB_DEVICE/App/usbd_desc.c **** /* Private define ------------------------------------------------------------*/
  22:USB_DEVICE/App/usbd_desc.c **** /* Private macro -------------------------------------------------------------*/
  23:USB_DEVICE/App/usbd_desc.c **** 
  24:USB_DEVICE/App/usbd_desc.c **** /* USER CODE BEGIN PV */
  25:USB_DEVICE/App/usbd_desc.c **** /* Private variables ---------------------------------------------------------*/
  26:USB_DEVICE/App/usbd_desc.c **** 
  27:USB_DEVICE/App/usbd_desc.c **** /* USER CODE END PV */
  28:USB_DEVICE/App/usbd_desc.c **** 
  29:USB_DEVICE/App/usbd_desc.c **** /** @addtogroup STM32_USB_OTG_DEVICE_LIBRARY
ARM GAS  C:\Temp\ccgG4KLl.s 			page 2


  30:USB_DEVICE/App/usbd_desc.c ****   * @{
  31:USB_DEVICE/App/usbd_desc.c ****   */
  32:USB_DEVICE/App/usbd_desc.c **** 
  33:USB_DEVICE/App/usbd_desc.c **** /** @addtogroup USBD_DESC
  34:USB_DEVICE/App/usbd_desc.c ****   * @{
  35:USB_DEVICE/App/usbd_desc.c ****   */
  36:USB_DEVICE/App/usbd_desc.c **** 
  37:USB_DEVICE/App/usbd_desc.c **** /** @defgroup USBD_DESC_Private_TypesDefinitions USBD_DESC_Private_TypesDefinitions
  38:USB_DEVICE/App/usbd_desc.c ****   * @brief Private types.
  39:USB_DEVICE/App/usbd_desc.c ****   * @{
  40:USB_DEVICE/App/usbd_desc.c ****   */
  41:USB_DEVICE/App/usbd_desc.c **** 
  42:USB_DEVICE/App/usbd_desc.c **** /* USER CODE BEGIN PRIVATE_TYPES */
  43:USB_DEVICE/App/usbd_desc.c **** 
  44:USB_DEVICE/App/usbd_desc.c **** /* USER CODE END PRIVATE_TYPES */
  45:USB_DEVICE/App/usbd_desc.c **** 
  46:USB_DEVICE/App/usbd_desc.c **** /**
  47:USB_DEVICE/App/usbd_desc.c ****   * @}
  48:USB_DEVICE/App/usbd_desc.c ****   */
  49:USB_DEVICE/App/usbd_desc.c **** 
  50:USB_DEVICE/App/usbd_desc.c **** /** @defgroup USBD_DESC_Private_Defines USBD_DESC_Private_Defines
  51:USB_DEVICE/App/usbd_desc.c ****   * @brief Private defines.
  52:USB_DEVICE/App/usbd_desc.c ****   * @{
  53:USB_DEVICE/App/usbd_desc.c ****   */
  54:USB_DEVICE/App/usbd_desc.c **** 
  55:USB_DEVICE/App/usbd_desc.c **** /* XInput (Xbox 360) Identity */
  56:USB_DEVICE/App/usbd_desc.c **** #define USBD_VID     0x045E         // Microsoft
  57:USB_DEVICE/App/usbd_desc.c **** #define USBD_LANGID_STRING     1033
  58:USB_DEVICE/App/usbd_desc.c **** #define USBD_MANUFACTURER_STRING     "Microsoft"
  59:USB_DEVICE/App/usbd_desc.c **** #define USBD_PID_FS     0x028E      // Xbox 360 Controller
  60:USB_DEVICE/App/usbd_desc.c **** #define USBD_PRODUCT_STRING_FS     "Controller"
  61:USB_DEVICE/App/usbd_desc.c **** #define USBD_CONFIGURATION_STRING_FS     "Config"
  62:USB_DEVICE/App/usbd_desc.c **** #define USBD_INTERFACE_STRING_FS     "Interface"
  63:USB_DEVICE/App/usbd_desc.c **** 
  64:USB_DEVICE/App/usbd_desc.c **** /* USER CODE BEGIN PRIVATE_DEFINES */
  65:USB_DEVICE/App/usbd_desc.c **** 
  66:USB_DEVICE/App/usbd_desc.c **** /* USER CODE END PRIVATE_DEFINES */
  67:USB_DEVICE/App/usbd_desc.c **** 
  68:USB_DEVICE/App/usbd_desc.c **** /**
  69:USB_DEVICE/App/usbd_desc.c ****   * @}
  70:USB_DEVICE/App/usbd_desc.c ****   */
  71:USB_DEVICE/App/usbd_desc.c **** 
  72:USB_DEVICE/App/usbd_desc.c **** /* USER CODE BEGIN 0 */
  73:USB_DEVICE/App/usbd_desc.c **** 
  74:USB_DEVICE/App/usbd_desc.c **** /* USER CODE END 0 */
  75:USB_DEVICE/App/usbd_desc.c **** 
  76:USB_DEVICE/App/usbd_desc.c **** /** @defgroup USBD_DESC_Private_Macros USBD_DESC_Private_Macros
  77:USB_DEVICE/App/usbd_desc.c ****   * @brief Private macros.
  78:USB_DEVICE/App/usbd_desc.c ****   * @{
  79:USB_DEVICE/App/usbd_desc.c ****   */
  80:USB_DEVICE/App/usbd_desc.c **** 
  81:USB_DEVICE/App/usbd_desc.c **** /* USER CODE BEGIN PRIVATE_MACRO */
  82:USB_DEVICE/App/usbd_desc.c **** 
  83:USB_DEVICE/App/usbd_desc.c **** /* USER CODE END PRIVATE_MACRO */
  84:USB_DEVICE/App/usbd_desc.c **** 
  85:USB_DEVICE/App/usbd_desc.c **** /**
  86:USB_DEVICE/App/usbd_desc.c ****   * @defgroup USBD_DESC_Private_FunctionPrototypes USBD_DESC_Private_FunctionPrototypes
ARM GAS  C:\Temp\ccgG4KLl.s 			page 3


  87:USB_DEVICE/App/usbd_desc.c ****   * @brief Private functions declaration.
  88:USB_DEVICE/App/usbd_desc.c ****   * @{
  89:USB_DEVICE/App/usbd_desc.c ****   */
  90:USB_DEVICE/App/usbd_desc.c **** 
  91:USB_DEVICE/App/usbd_desc.c **** static void Get_SerialNum(void);
  92:USB_DEVICE/App/usbd_desc.c **** static void IntToUnicode(uint32_t value, uint8_t * pbuf, uint8_t len);
  93:USB_DEVICE/App/usbd_desc.c **** 
  94:USB_DEVICE/App/usbd_desc.c **** /**
  95:USB_DEVICE/App/usbd_desc.c ****   * @}
  96:USB_DEVICE/App/usbd_desc.c ****   */
  97:USB_DEVICE/App/usbd_desc.c **** 
  98:USB_DEVICE/App/usbd_desc.c **** /** @defgroup USBD_DESC_Private_FunctionPrototypes USBD_DESC_Private_FunctionPrototypes
  99:USB_DEVICE/App/usbd_desc.c ****   * @brief Private functions declaration for FS.
 100:USB_DEVICE/App/usbd_desc.c ****   * @{
 101:USB_DEVICE/App/usbd_desc.c ****   */
 102:USB_DEVICE/App/usbd_desc.c **** 
 103:USB_DEVICE/App/usbd_desc.c **** uint8_t * USBD_FS_DeviceDescriptor(USBD_SpeedTypeDef speed, uint16_t *length);
 104:USB_DEVICE/App/usbd_desc.c **** uint8_t * USBD_FS_LangIDStrDescriptor(USBD_SpeedTypeDef speed, uint16_t *length);
 105:USB_DEVICE/App/usbd_desc.c **** uint8_t * USBD_FS_ManufacturerStrDescriptor(USBD_SpeedTypeDef speed, uint16_t *length);
 106:USB_DEVICE/App/usbd_desc.c **** uint8_t * USBD_FS_ProductStrDescriptor(USBD_SpeedTypeDef speed, uint16_t *length);
 107:USB_DEVICE/App/usbd_desc.c **** uint8_t * USBD_FS_SerialStrDescriptor(USBD_SpeedTypeDef speed, uint16_t *length);
 108:USB_DEVICE/App/usbd_desc.c **** uint8_t * USBD_FS_ConfigStrDescriptor(USBD_SpeedTypeDef speed, uint16_t *length);
 109:USB_DEVICE/App/usbd_desc.c **** uint8_t * USBD_FS_InterfaceStrDescriptor(USBD_SpeedTypeDef speed, uint16_t *length);
 110:USB_DEVICE/App/usbd_desc.c **** 
 111:USB_DEVICE/App/usbd_desc.c **** /**
 112:USB_DEVICE/App/usbd_desc.c ****   * @}
 113:USB_DEVICE/App/usbd_desc.c ****   */
 114:USB_DEVICE/App/usbd_desc.c **** 
 115:USB_DEVICE/App/usbd_desc.c **** /** @defgroup USBD_DESC_Private_Variables USBD_DESC_Private_Variables
 116:USB_DEVICE/App/usbd_desc.c ****   * @brief Private variables.
 117:USB_DEVICE/App/usbd_desc.c ****   * @{
 118:USB_DEVICE/App/usbd_desc.c ****   */
 119:USB_DEVICE/App/usbd_desc.c **** 
 120:USB_DEVICE/App/usbd_desc.c **** USBD_DescriptorsTypeDef FS_Desc =
 121:USB_DEVICE/App/usbd_desc.c **** {
 122:USB_DEVICE/App/usbd_desc.c ****   USBD_FS_DeviceDescriptor
 123:USB_DEVICE/App/usbd_desc.c **** , USBD_FS_LangIDStrDescriptor
 124:USB_DEVICE/App/usbd_desc.c **** , USBD_FS_ManufacturerStrDescriptor
 125:USB_DEVICE/App/usbd_desc.c **** , USBD_FS_ProductStrDescriptor
 126:USB_DEVICE/App/usbd_desc.c **** , USBD_FS_SerialStrDescriptor
 127:USB_DEVICE/App/usbd_desc.c **** , USBD_FS_ConfigStrDescriptor
 128:USB_DEVICE/App/usbd_desc.c **** , USBD_FS_InterfaceStrDescriptor
 129:USB_DEVICE/App/usbd_desc.c **** };
 130:USB_DEVICE/App/usbd_desc.c **** 
 131:USB_DEVICE/App/usbd_desc.c **** #if defined ( __ICCARM__ ) /* IAR Compiler */
 132:USB_DEVICE/App/usbd_desc.c ****   #pragma data_alignment=4
 133:USB_DEVICE/App/usbd_desc.c **** #endif /* defined ( __ICCARM__ ) */
 134:USB_DEVICE/App/usbd_desc.c **** /** USB standard device descriptor. */
 135:USB_DEVICE/App/usbd_desc.c **** __ALIGN_BEGIN uint8_t USBD_FS_DeviceDesc[USB_LEN_DEV_DESC] __ALIGN_END =
 136:USB_DEVICE/App/usbd_desc.c **** {
 137:USB_DEVICE/App/usbd_desc.c ****   0x12,                       /*bLength */
 138:USB_DEVICE/App/usbd_desc.c ****   USB_DESC_TYPE_DEVICE,       /*bDescriptorType*/
 139:USB_DEVICE/App/usbd_desc.c ****   0x00,                       /*bcdUSB */
 140:USB_DEVICE/App/usbd_desc.c ****   0x02,
 141:USB_DEVICE/App/usbd_desc.c ****   /* ★修正: コンポジットデバイスとして定義 (0xEF, 0x02, 0x01) */
 142:USB_DEVICE/App/usbd_desc.c ****   0xEF,                       /*bDeviceClass (Miscellaneous)*/
 143:USB_DEVICE/App/usbd_desc.c ****   0x02,                       /*bDeviceSubClass (Common Class)*/
ARM GAS  C:\Temp\ccgG4KLl.s 			page 4


 144:USB_DEVICE/App/usbd_desc.c ****   0x01,                       /*bDeviceProtocol (Interface Association Descriptor)*/
 145:USB_DEVICE/App/usbd_desc.c ****   USB_MAX_EP0_SIZE,           /*bMaxPacketSize*/
 146:USB_DEVICE/App/usbd_desc.c ****   LOBYTE(USBD_VID),           /*idVendor*/
 147:USB_DEVICE/App/usbd_desc.c ****   HIBYTE(USBD_VID),           /*idVendor*/
 148:USB_DEVICE/App/usbd_desc.c ****   LOBYTE(USBD_PID_FS),        /*idProduct*/
 149:USB_DEVICE/App/usbd_desc.c ****   HIBYTE(USBD_PID_FS),        /*idProduct*/
 150:USB_DEVICE/App/usbd_desc.c ****   0x14,                       /*bcdDevice rel. 2.14*/
 151:USB_DEVICE/App/usbd_desc.c ****   0x02,
 152:USB_DEVICE/App/usbd_desc.c ****   USBD_IDX_MFC_STR,           /*Index of manufacturer  string*/
 153:USB_DEVICE/App/usbd_desc.c ****   USBD_IDX_PRODUCT_STR,       /*Index of product string*/
 154:USB_DEVICE/App/usbd_desc.c ****   USBD_IDX_SERIAL_STR,        /*Index of serial number string*/
 155:USB_DEVICE/App/usbd_desc.c ****   USBD_MAX_NUM_CONFIGURATION  /*bNumConfigurations*/
 156:USB_DEVICE/App/usbd_desc.c **** };
 157:USB_DEVICE/App/usbd_desc.c **** 
 158:USB_DEVICE/App/usbd_desc.c **** /* USB_DeviceDescriptor */
 159:USB_DEVICE/App/usbd_desc.c **** 
 160:USB_DEVICE/App/usbd_desc.c **** /**
 161:USB_DEVICE/App/usbd_desc.c ****   * @}
 162:USB_DEVICE/App/usbd_desc.c ****   */
 163:USB_DEVICE/App/usbd_desc.c **** 
 164:USB_DEVICE/App/usbd_desc.c **** /** @defgroup USBD_DESC_Private_Variables USBD_DESC_Private_Variables
 165:USB_DEVICE/App/usbd_desc.c ****   * @brief Private variables.
 166:USB_DEVICE/App/usbd_desc.c ****   * @{
 167:USB_DEVICE/App/usbd_desc.c ****   */
 168:USB_DEVICE/App/usbd_desc.c **** 
 169:USB_DEVICE/App/usbd_desc.c **** #if defined ( __ICCARM__ ) /* IAR Compiler */
 170:USB_DEVICE/App/usbd_desc.c ****   #pragma data_alignment=4
 171:USB_DEVICE/App/usbd_desc.c **** #endif /* defined ( __ICCARM__ ) */
 172:USB_DEVICE/App/usbd_desc.c **** 
 173:USB_DEVICE/App/usbd_desc.c **** /** USB lang identifier descriptor. */
 174:USB_DEVICE/App/usbd_desc.c **** __ALIGN_BEGIN uint8_t USBD_LangIDDesc[USB_LEN_LANGID_STR_DESC] __ALIGN_END =
 175:USB_DEVICE/App/usbd_desc.c **** {
 176:USB_DEVICE/App/usbd_desc.c ****      USB_LEN_LANGID_STR_DESC,
 177:USB_DEVICE/App/usbd_desc.c ****      USB_DESC_TYPE_STRING,
 178:USB_DEVICE/App/usbd_desc.c ****      LOBYTE(USBD_LANGID_STRING),
 179:USB_DEVICE/App/usbd_desc.c ****      HIBYTE(USBD_LANGID_STRING)
 180:USB_DEVICE/App/usbd_desc.c **** };
 181:USB_DEVICE/App/usbd_desc.c **** 
 182:USB_DEVICE/App/usbd_desc.c **** #if defined ( __ICCARM__ ) /* IAR Compiler */
 183:USB_DEVICE/App/usbd_desc.c ****   #pragma data_alignment=4
 184:USB_DEVICE/App/usbd_desc.c **** #endif /* defined ( __ICCARM__ ) */
 185:USB_DEVICE/App/usbd_desc.c **** /* Internal string descriptor. */
 186:USB_DEVICE/App/usbd_desc.c **** __ALIGN_BEGIN uint8_t USBD_StrDesc[USBD_MAX_STR_DESC_SIZ] __ALIGN_END;
 187:USB_DEVICE/App/usbd_desc.c **** 
 188:USB_DEVICE/App/usbd_desc.c **** #if defined ( __ICCARM__ ) /*!< IAR Compiler */
 189:USB_DEVICE/App/usbd_desc.c ****   #pragma data_alignment=4
 190:USB_DEVICE/App/usbd_desc.c **** #endif
 191:USB_DEVICE/App/usbd_desc.c **** __ALIGN_BEGIN uint8_t USBD_StringSerial[USB_SIZ_STRING_SERIAL] __ALIGN_END = {
 192:USB_DEVICE/App/usbd_desc.c ****   USB_SIZ_STRING_SERIAL,
 193:USB_DEVICE/App/usbd_desc.c ****   USB_DESC_TYPE_STRING,
 194:USB_DEVICE/App/usbd_desc.c **** };
 195:USB_DEVICE/App/usbd_desc.c **** 
 196:USB_DEVICE/App/usbd_desc.c **** /**
 197:USB_DEVICE/App/usbd_desc.c ****   * @}
 198:USB_DEVICE/App/usbd_desc.c ****   */
 199:USB_DEVICE/App/usbd_desc.c **** 
 200:USB_DEVICE/App/usbd_desc.c **** /** @defgroup USBD_DESC_Private_Functions USBD_DESC_Private_Functions
ARM GAS  C:\Temp\ccgG4KLl.s 			page 5


 201:USB_DEVICE/App/usbd_desc.c ****   * @brief Private functions.
 202:USB_DEVICE/App/usbd_desc.c ****   * @{
 203:USB_DEVICE/App/usbd_desc.c ****   */
 204:USB_DEVICE/App/usbd_desc.c **** 
 205:USB_DEVICE/App/usbd_desc.c **** /**
 206:USB_DEVICE/App/usbd_desc.c ****   * @brief  Return the device descriptor
 207:USB_DEVICE/App/usbd_desc.c ****   * @param  speed : Current device speed
 208:USB_DEVICE/App/usbd_desc.c ****   * @param  length : Pointer to data length variable
 209:USB_DEVICE/App/usbd_desc.c ****   * @retval Pointer to descriptor buffer
 210:USB_DEVICE/App/usbd_desc.c ****   */
 211:USB_DEVICE/App/usbd_desc.c **** uint8_t * USBD_FS_DeviceDescriptor(USBD_SpeedTypeDef speed, uint16_t *length)
 212:USB_DEVICE/App/usbd_desc.c **** {
  30              		.loc 1 212 1 view -0
  31              		.cfi_startproc
  32              		@ args = 0, pretend = 0, frame = 0
  33              		@ frame_needed = 0, uses_anonymous_args = 0
  34              		@ link register save eliminated.
 213:USB_DEVICE/App/usbd_desc.c ****   UNUSED(speed);
  35              		.loc 1 213 3 view .LVU1
 214:USB_DEVICE/App/usbd_desc.c ****   *length = sizeof(USBD_FS_DeviceDesc);
  36              		.loc 1 214 3 view .LVU2
  37              		.loc 1 214 11 is_stmt 0 view .LVU3
  38 0000 1223     		movs	r3, #18
  39 0002 0B80     		strh	r3, [r1]	@ movhi
 215:USB_DEVICE/App/usbd_desc.c ****   return USBD_FS_DeviceDesc;
  40              		.loc 1 215 3 is_stmt 1 view .LVU4
 216:USB_DEVICE/App/usbd_desc.c **** }
  41              		.loc 1 216 1 is_stmt 0 view .LVU5
  42 0004 0048     		ldr	r0, .L2
  43              	.LVL1:
  44              		.loc 1 216 1 view .LVU6
  45 0006 7047     		bx	lr
  46              	.L3:
  47              		.align	2
  48              	.L2:
  49 0008 00000000 		.word	USBD_FS_DeviceDesc
  50              		.cfi_endproc
  51              	.LFE133:
  53              		.section	.text.USBD_FS_LangIDStrDescriptor,"ax",%progbits
  54              		.align	1
  55              		.global	USBD_FS_LangIDStrDescriptor
  56              		.syntax unified
  57              		.thumb
  58              		.thumb_func
  60              	USBD_FS_LangIDStrDescriptor:
  61              	.LVL2:
  62              	.LFB134:
 217:USB_DEVICE/App/usbd_desc.c **** 
 218:USB_DEVICE/App/usbd_desc.c **** /**
 219:USB_DEVICE/App/usbd_desc.c ****   * @brief  Return the LangID string descriptor
 220:USB_DEVICE/App/usbd_desc.c ****   * @param  speed : Current device speed
 221:USB_DEVICE/App/usbd_desc.c ****   * @param  length : Pointer to data length variable
 222:USB_DEVICE/App/usbd_desc.c ****   * @retval Pointer to descriptor buffer
 223:USB_DEVICE/App/usbd_desc.c ****   */
 224:USB_DEVICE/App/usbd_desc.c **** uint8_t * USBD_FS_LangIDStrDescriptor(USBD_SpeedTypeDef speed, uint16_t *length)
 225:USB_DEVICE/App/usbd_desc.c **** {
  63              		.loc 1 225 1 is_stmt 1 view -0
ARM GAS  C:\Temp\ccgG4KLl.s 			page 6


  64              		.cfi_startproc
  65              		@ args = 0, pretend = 0, frame = 0
  66              		@ frame_needed = 0, uses_anonymous_args = 0
  67              		@ link register save eliminated.
 226:USB_DEVICE/App/usbd_desc.c ****   UNUSED(speed);
  68              		.loc 1 226 3 view .LVU8
 227:USB_DEVICE/App/usbd_desc.c ****   *length = sizeof(USBD_LangIDDesc);
  69              		.loc 1 227 3 view .LVU9
  70              		.loc 1 227 11 is_stmt 0 view .LVU10
  71 0000 0423     		movs	r3, #4
  72 0002 0B80     		strh	r3, [r1]	@ movhi
 228:USB_DEVICE/App/usbd_desc.c ****   return USBD_LangIDDesc;
  73              		.loc 1 228 3 is_stmt 1 view .LVU11
 229:USB_DEVICE/App/usbd_desc.c **** }
  74              		.loc 1 229 1 is_stmt 0 view .LVU12
  75 0004 0048     		ldr	r0, .L5
  76              	.LVL3:
  77              		.loc 1 229 1 view .LVU13
  78 0006 7047     		bx	lr
  79              	.L6:
  80              		.align	2
  81              	.L5:
  82 0008 00000000 		.word	USBD_LangIDDesc
  83              		.cfi_endproc
  84              	.LFE134:
  86              		.section	.text.IntToUnicode,"ax",%progbits
  87              		.align	1
  88              		.syntax unified
  89              		.thumb
  90              		.thumb_func
  92              	IntToUnicode:
  93              	.LVL4:
  94              	.LFB141:
 230:USB_DEVICE/App/usbd_desc.c **** 
 231:USB_DEVICE/App/usbd_desc.c **** /**
 232:USB_DEVICE/App/usbd_desc.c ****   * @brief  Return the product string descriptor
 233:USB_DEVICE/App/usbd_desc.c ****   * @param  speed : Current device speed
 234:USB_DEVICE/App/usbd_desc.c ****   * @param  length : Pointer to data length variable
 235:USB_DEVICE/App/usbd_desc.c ****   * @retval Pointer to descriptor buffer
 236:USB_DEVICE/App/usbd_desc.c ****   */
 237:USB_DEVICE/App/usbd_desc.c **** uint8_t * USBD_FS_ProductStrDescriptor(USBD_SpeedTypeDef speed, uint16_t *length)
 238:USB_DEVICE/App/usbd_desc.c **** {
 239:USB_DEVICE/App/usbd_desc.c ****   if(speed == 0)
 240:USB_DEVICE/App/usbd_desc.c ****   {
 241:USB_DEVICE/App/usbd_desc.c ****     USBD_GetString((uint8_t *)USBD_PRODUCT_STRING_FS, USBD_StrDesc, length);
 242:USB_DEVICE/App/usbd_desc.c ****   }
 243:USB_DEVICE/App/usbd_desc.c ****   else
 244:USB_DEVICE/App/usbd_desc.c ****   {
 245:USB_DEVICE/App/usbd_desc.c ****     USBD_GetString((uint8_t *)USBD_PRODUCT_STRING_FS, USBD_StrDesc, length);
 246:USB_DEVICE/App/usbd_desc.c ****   }
 247:USB_DEVICE/App/usbd_desc.c ****   return USBD_StrDesc;
 248:USB_DEVICE/App/usbd_desc.c **** }
 249:USB_DEVICE/App/usbd_desc.c **** 
 250:USB_DEVICE/App/usbd_desc.c **** /**
 251:USB_DEVICE/App/usbd_desc.c ****   * @brief  Return the manufacturer string descriptor
 252:USB_DEVICE/App/usbd_desc.c ****   * @param  speed : Current device speed
 253:USB_DEVICE/App/usbd_desc.c ****   * @param  length : Pointer to data length variable
ARM GAS  C:\Temp\ccgG4KLl.s 			page 7


 254:USB_DEVICE/App/usbd_desc.c ****   * @retval Pointer to descriptor buffer
 255:USB_DEVICE/App/usbd_desc.c ****   */
 256:USB_DEVICE/App/usbd_desc.c **** uint8_t * USBD_FS_ManufacturerStrDescriptor(USBD_SpeedTypeDef speed, uint16_t *length)
 257:USB_DEVICE/App/usbd_desc.c **** {
 258:USB_DEVICE/App/usbd_desc.c ****   UNUSED(speed);
 259:USB_DEVICE/App/usbd_desc.c ****   USBD_GetString((uint8_t *)USBD_MANUFACTURER_STRING, USBD_StrDesc, length);
 260:USB_DEVICE/App/usbd_desc.c ****   return USBD_StrDesc;
 261:USB_DEVICE/App/usbd_desc.c **** }
 262:USB_DEVICE/App/usbd_desc.c **** 
 263:USB_DEVICE/App/usbd_desc.c **** /**
 264:USB_DEVICE/App/usbd_desc.c ****   * @brief  Return the serial number string descriptor
 265:USB_DEVICE/App/usbd_desc.c ****   * @param  speed : Current device speed
 266:USB_DEVICE/App/usbd_desc.c ****   * @param  length : Pointer to data length variable
 267:USB_DEVICE/App/usbd_desc.c ****   * @retval Pointer to descriptor buffer
 268:USB_DEVICE/App/usbd_desc.c ****   */
 269:USB_DEVICE/App/usbd_desc.c **** uint8_t * USBD_FS_SerialStrDescriptor(USBD_SpeedTypeDef speed, uint16_t *length)
 270:USB_DEVICE/App/usbd_desc.c **** {
 271:USB_DEVICE/App/usbd_desc.c ****   UNUSED(speed);
 272:USB_DEVICE/App/usbd_desc.c ****   *length = USB_SIZ_STRING_SERIAL;
 273:USB_DEVICE/App/usbd_desc.c **** 
 274:USB_DEVICE/App/usbd_desc.c ****   /* Update the serial number string descriptor with the data from the unique
 275:USB_DEVICE/App/usbd_desc.c ****    * ID */
 276:USB_DEVICE/App/usbd_desc.c ****   Get_SerialNum();
 277:USB_DEVICE/App/usbd_desc.c ****   /* USER CODE BEGIN USBD_FS_SerialStrDescriptor */
 278:USB_DEVICE/App/usbd_desc.c **** 
 279:USB_DEVICE/App/usbd_desc.c ****   /* USER CODE END USBD_FS_SerialStrDescriptor */
 280:USB_DEVICE/App/usbd_desc.c ****   return (uint8_t *) USBD_StringSerial;
 281:USB_DEVICE/App/usbd_desc.c **** }
 282:USB_DEVICE/App/usbd_desc.c **** 
 283:USB_DEVICE/App/usbd_desc.c **** /**
 284:USB_DEVICE/App/usbd_desc.c ****   * @brief  Return the configuration string descriptor
 285:USB_DEVICE/App/usbd_desc.c ****   * @param  speed : Current device speed
 286:USB_DEVICE/App/usbd_desc.c ****   * @param  length : Pointer to data length variable
 287:USB_DEVICE/App/usbd_desc.c ****   * @retval Pointer to descriptor buffer
 288:USB_DEVICE/App/usbd_desc.c ****   */
 289:USB_DEVICE/App/usbd_desc.c **** uint8_t * USBD_FS_ConfigStrDescriptor(USBD_SpeedTypeDef speed, uint16_t *length)
 290:USB_DEVICE/App/usbd_desc.c **** {
 291:USB_DEVICE/App/usbd_desc.c ****   if(speed == USBD_SPEED_HIGH)
 292:USB_DEVICE/App/usbd_desc.c ****   {
 293:USB_DEVICE/App/usbd_desc.c ****     USBD_GetString((uint8_t *)USBD_CONFIGURATION_STRING_FS, USBD_StrDesc, length);
 294:USB_DEVICE/App/usbd_desc.c ****   }
 295:USB_DEVICE/App/usbd_desc.c ****   else
 296:USB_DEVICE/App/usbd_desc.c ****   {
 297:USB_DEVICE/App/usbd_desc.c ****     USBD_GetString((uint8_t *)USBD_CONFIGURATION_STRING_FS, USBD_StrDesc, length);
 298:USB_DEVICE/App/usbd_desc.c ****   }
 299:USB_DEVICE/App/usbd_desc.c ****   return USBD_StrDesc;
 300:USB_DEVICE/App/usbd_desc.c **** }
 301:USB_DEVICE/App/usbd_desc.c **** 
 302:USB_DEVICE/App/usbd_desc.c **** /**
 303:USB_DEVICE/App/usbd_desc.c ****   * @brief  Return the interface string descriptor
 304:USB_DEVICE/App/usbd_desc.c ****   * @param  speed : Current device speed
 305:USB_DEVICE/App/usbd_desc.c ****   * @param  length : Pointer to data length variable
 306:USB_DEVICE/App/usbd_desc.c ****   * @retval Pointer to descriptor buffer
 307:USB_DEVICE/App/usbd_desc.c ****   */
 308:USB_DEVICE/App/usbd_desc.c **** uint8_t * USBD_FS_InterfaceStrDescriptor(USBD_SpeedTypeDef speed, uint16_t *length)
 309:USB_DEVICE/App/usbd_desc.c **** {
 310:USB_DEVICE/App/usbd_desc.c ****   if(speed == 0)
ARM GAS  C:\Temp\ccgG4KLl.s 			page 8


 311:USB_DEVICE/App/usbd_desc.c ****   {
 312:USB_DEVICE/App/usbd_desc.c ****     USBD_GetString((uint8_t *)USBD_INTERFACE_STRING_FS, USBD_StrDesc, length);
 313:USB_DEVICE/App/usbd_desc.c ****   }
 314:USB_DEVICE/App/usbd_desc.c ****   else
 315:USB_DEVICE/App/usbd_desc.c ****   {
 316:USB_DEVICE/App/usbd_desc.c ****     USBD_GetString((uint8_t *)USBD_INTERFACE_STRING_FS, USBD_StrDesc, length);
 317:USB_DEVICE/App/usbd_desc.c ****   }
 318:USB_DEVICE/App/usbd_desc.c ****   return USBD_StrDesc;
 319:USB_DEVICE/App/usbd_desc.c **** }
 320:USB_DEVICE/App/usbd_desc.c **** 
 321:USB_DEVICE/App/usbd_desc.c **** /**
 322:USB_DEVICE/App/usbd_desc.c ****   * @brief  Create the serial number string descriptor
 323:USB_DEVICE/App/usbd_desc.c ****   * @param  None
 324:USB_DEVICE/App/usbd_desc.c ****   * @retval None
 325:USB_DEVICE/App/usbd_desc.c ****   */
 326:USB_DEVICE/App/usbd_desc.c **** static void Get_SerialNum(void)
 327:USB_DEVICE/App/usbd_desc.c **** {
 328:USB_DEVICE/App/usbd_desc.c ****   uint32_t deviceserial0;
 329:USB_DEVICE/App/usbd_desc.c ****   uint32_t deviceserial1;
 330:USB_DEVICE/App/usbd_desc.c ****   uint32_t deviceserial2;
 331:USB_DEVICE/App/usbd_desc.c **** 
 332:USB_DEVICE/App/usbd_desc.c ****   deviceserial0 = *(uint32_t *) DEVICE_ID1;
 333:USB_DEVICE/App/usbd_desc.c ****   deviceserial1 = *(uint32_t *) DEVICE_ID2;
 334:USB_DEVICE/App/usbd_desc.c ****   deviceserial2 = *(uint32_t *) DEVICE_ID3;
 335:USB_DEVICE/App/usbd_desc.c **** 
 336:USB_DEVICE/App/usbd_desc.c ****   deviceserial0 += deviceserial2;
 337:USB_DEVICE/App/usbd_desc.c **** 
 338:USB_DEVICE/App/usbd_desc.c ****   if (deviceserial0 != 0)
 339:USB_DEVICE/App/usbd_desc.c ****   {
 340:USB_DEVICE/App/usbd_desc.c ****     IntToUnicode(deviceserial0, &USBD_StringSerial[2], 8);
 341:USB_DEVICE/App/usbd_desc.c ****     IntToUnicode(deviceserial1, &USBD_StringSerial[18], 4);
 342:USB_DEVICE/App/usbd_desc.c ****   }
 343:USB_DEVICE/App/usbd_desc.c **** }
 344:USB_DEVICE/App/usbd_desc.c **** 
 345:USB_DEVICE/App/usbd_desc.c **** /**
 346:USB_DEVICE/App/usbd_desc.c ****   * @brief  Convert Hex 32Bits value into char
 347:USB_DEVICE/App/usbd_desc.c ****   * @param  value: value to convert
 348:USB_DEVICE/App/usbd_desc.c ****   * @param  pbuf: pointer to the buffer
 349:USB_DEVICE/App/usbd_desc.c ****   * @param  len: buffer length
 350:USB_DEVICE/App/usbd_desc.c ****   * @retval None
 351:USB_DEVICE/App/usbd_desc.c ****   */
 352:USB_DEVICE/App/usbd_desc.c **** static void IntToUnicode(uint32_t value, uint8_t * pbuf, uint8_t len)
 353:USB_DEVICE/App/usbd_desc.c **** {
  95              		.loc 1 353 1 is_stmt 1 view -0
  96              		.cfi_startproc
  97              		@ args = 0, pretend = 0, frame = 0
  98              		@ frame_needed = 0, uses_anonymous_args = 0
 354:USB_DEVICE/App/usbd_desc.c ****   uint8_t idx = 0;
  99              		.loc 1 354 3 view .LVU15
 355:USB_DEVICE/App/usbd_desc.c **** 
 356:USB_DEVICE/App/usbd_desc.c ****   for (idx = 0; idx < len; idx++)
 100              		.loc 1 356 3 view .LVU16
 101              		.loc 1 356 12 is_stmt 0 view .LVU17
 102 0000 0023     		movs	r3, #0
 103              	.LVL5:
 104              		.loc 1 356 21 is_stmt 1 discriminator 1 view .LVU18
 105 0002 9342     		cmp	r3, r2
ARM GAS  C:\Temp\ccgG4KLl.s 			page 9


 106 0004 1DD2     		bcs	.L15
 353:USB_DEVICE/App/usbd_desc.c ****   uint8_t idx = 0;
 107              		.loc 1 353 1 is_stmt 0 view .LVU19
 108 0006 00B5     		push	{lr}
 109              	.LCFI0:
 110              		.cfi_def_cfa_offset 4
 111              		.cfi_offset 14, -4
 112 0008 10E0     		b	.L11
 113              	.L9:
 357:USB_DEVICE/App/usbd_desc.c ****   {
 358:USB_DEVICE/App/usbd_desc.c ****     if (((value >> 28)) < 0xA)
 359:USB_DEVICE/App/usbd_desc.c ****     {
 360:USB_DEVICE/App/usbd_desc.c ****       pbuf[2 * idx] = (value >> 28) + '0';
 361:USB_DEVICE/App/usbd_desc.c ****     }
 362:USB_DEVICE/App/usbd_desc.c ****     else
 363:USB_DEVICE/App/usbd_desc.c ****     {
 364:USB_DEVICE/App/usbd_desc.c ****       pbuf[2 * idx] = (value >> 28) + 'A' - 10;
 114              		.loc 1 364 7 is_stmt 1 view .LVU20
 115              		.loc 1 364 43 is_stmt 0 view .LVU21
 116 000a 0CF1370C 		add	ip, ip, #55
 117              		.loc 1 364 21 view .LVU22
 118 000e 01F813C0 		strb	ip, [r1, r3, lsl #1]
 119              	.L10:
 365:USB_DEVICE/App/usbd_desc.c ****     }
 366:USB_DEVICE/App/usbd_desc.c **** 
 367:USB_DEVICE/App/usbd_desc.c ****     value = value << 4;
 120              		.loc 1 367 5 is_stmt 1 view .LVU23
 121              		.loc 1 367 11 is_stmt 0 view .LVU24
 122 0012 0001     		lsls	r0, r0, #4
 123              	.LVL6:
 368:USB_DEVICE/App/usbd_desc.c **** 
 369:USB_DEVICE/App/usbd_desc.c ****     pbuf[2 * idx + 1] = 0;
 124              		.loc 1 369 5 is_stmt 1 view .LVU25
 125              		.loc 1 369 12 is_stmt 0 view .LVU26
 126 0014 4FEA430C 		lsl	ip, r3, #1
 127              		.loc 1 369 18 view .LVU27
 128 0018 0CF1010C 		add	ip, ip, #1
 129              		.loc 1 369 23 view .LVU28
 130 001c 4FF0000E 		mov	lr, #0
 131 0020 01F80CE0 		strb	lr, [r1, ip]
 356:USB_DEVICE/App/usbd_desc.c ****   {
 132              		.loc 1 356 31 is_stmt 1 discriminator 2 view .LVU29
 133 0024 0133     		adds	r3, r3, #1
 134              	.LVL7:
 356:USB_DEVICE/App/usbd_desc.c ****   {
 135              		.loc 1 356 31 is_stmt 0 discriminator 2 view .LVU30
 136 0026 DBB2     		uxtb	r3, r3
 137              	.LVL8:
 356:USB_DEVICE/App/usbd_desc.c ****   {
 138              		.loc 1 356 21 is_stmt 1 discriminator 1 view .LVU31
 139 0028 9342     		cmp	r3, r2
 140 002a 09D2     		bcs	.L16
 141              	.L11:
 358:USB_DEVICE/App/usbd_desc.c ****     {
 142              		.loc 1 358 5 view .LVU32
 358:USB_DEVICE/App/usbd_desc.c ****     {
 143              		.loc 1 358 17 is_stmt 0 view .LVU33
ARM GAS  C:\Temp\ccgG4KLl.s 			page 10


 144 002c 4FEA107C 		lsr	ip, r0, #28
 358:USB_DEVICE/App/usbd_desc.c ****     {
 145              		.loc 1 358 8 view .LVU34
 146 0030 B0F1204F 		cmp	r0, #-1610612736
 147 0034 E9D2     		bcs	.L9
 360:USB_DEVICE/App/usbd_desc.c ****     }
 148              		.loc 1 360 7 is_stmt 1 view .LVU35
 360:USB_DEVICE/App/usbd_desc.c ****     }
 149              		.loc 1 360 37 is_stmt 0 view .LVU36
 150 0036 0CF1300C 		add	ip, ip, #48
 360:USB_DEVICE/App/usbd_desc.c ****     }
 151              		.loc 1 360 21 view .LVU37
 152 003a 01F813C0 		strb	ip, [r1, r3, lsl #1]
 153 003e E8E7     		b	.L10
 154              	.L16:
 370:USB_DEVICE/App/usbd_desc.c ****   }
 371:USB_DEVICE/App/usbd_desc.c **** }
 155              		.loc 1 371 1 view .LVU38
 156 0040 00BD     		pop	{pc}
 157              	.L15:
 158              	.LCFI1:
 159              		.cfi_def_cfa_offset 0
 160              		.cfi_restore 14
 161              		.loc 1 371 1 view .LVU39
 162 0042 7047     		bx	lr
 163              		.cfi_endproc
 164              	.LFE141:
 166              		.section	.text.Get_SerialNum,"ax",%progbits
 167              		.align	1
 168              		.syntax unified
 169              		.thumb
 170              		.thumb_func
 172              	Get_SerialNum:
 173              	.LFB140:
 327:USB_DEVICE/App/usbd_desc.c ****   uint32_t deviceserial0;
 174              		.loc 1 327 1 is_stmt 1 view -0
 175              		.cfi_startproc
 176              		@ args = 0, pretend = 0, frame = 0
 177              		@ frame_needed = 0, uses_anonymous_args = 0
 328:USB_DEVICE/App/usbd_desc.c ****   uint32_t deviceserial1;
 178              		.loc 1 328 3 view .LVU41
 329:USB_DEVICE/App/usbd_desc.c ****   uint32_t deviceserial2;
 179              		.loc 1 329 3 view .LVU42
 330:USB_DEVICE/App/usbd_desc.c **** 
 180              		.loc 1 330 3 view .LVU43
 332:USB_DEVICE/App/usbd_desc.c ****   deviceserial1 = *(uint32_t *) DEVICE_ID2;
 181              		.loc 1 332 3 view .LVU44
 332:USB_DEVICE/App/usbd_desc.c ****   deviceserial1 = *(uint32_t *) DEVICE_ID2;
 182              		.loc 1 332 17 is_stmt 0 view .LVU45
 183 0000 0B4B     		ldr	r3, .L24
 184 0002 D3F8AC07 		ldr	r0, [r3, #1964]
 185              	.LVL9:
 333:USB_DEVICE/App/usbd_desc.c ****   deviceserial2 = *(uint32_t *) DEVICE_ID3;
 186              		.loc 1 333 3 is_stmt 1 view .LVU46
 333:USB_DEVICE/App/usbd_desc.c ****   deviceserial2 = *(uint32_t *) DEVICE_ID3;
 187              		.loc 1 333 17 is_stmt 0 view .LVU47
 188 0006 D3F8B027 		ldr	r2, [r3, #1968]
ARM GAS  C:\Temp\ccgG4KLl.s 			page 11


 189              	.LVL10:
 334:USB_DEVICE/App/usbd_desc.c **** 
 190              		.loc 1 334 3 is_stmt 1 view .LVU48
 334:USB_DEVICE/App/usbd_desc.c **** 
 191              		.loc 1 334 17 is_stmt 0 view .LVU49
 192 000a D3F8B437 		ldr	r3, [r3, #1972]
 193              	.LVL11:
 336:USB_DEVICE/App/usbd_desc.c **** 
 194              		.loc 1 336 3 is_stmt 1 view .LVU50
 338:USB_DEVICE/App/usbd_desc.c ****   {
 195              		.loc 1 338 3 view .LVU51
 338:USB_DEVICE/App/usbd_desc.c ****   {
 196              		.loc 1 338 6 is_stmt 0 view .LVU52
 197 000e C018     		adds	r0, r0, r3
 198              	.LVL12:
 338:USB_DEVICE/App/usbd_desc.c ****   {
 199              		.loc 1 338 6 view .LVU53
 200 0010 00D1     		bne	.L23
 201 0012 7047     		bx	lr
 202              	.L23:
 327:USB_DEVICE/App/usbd_desc.c ****   uint32_t deviceserial0;
 203              		.loc 1 327 1 view .LVU54
 204 0014 10B5     		push	{r4, lr}
 205              	.LCFI2:
 206              		.cfi_def_cfa_offset 8
 207              		.cfi_offset 4, -8
 208              		.cfi_offset 14, -4
 209 0016 1446     		mov	r4, r2
 340:USB_DEVICE/App/usbd_desc.c ****     IntToUnicode(deviceserial1, &USBD_StringSerial[18], 4);
 210              		.loc 1 340 5 is_stmt 1 view .LVU55
 211 0018 0822     		movs	r2, #8
 212              	.LVL13:
 340:USB_DEVICE/App/usbd_desc.c ****     IntToUnicode(deviceserial1, &USBD_StringSerial[18], 4);
 213              		.loc 1 340 5 is_stmt 0 view .LVU56
 214 001a 0649     		ldr	r1, .L24+4
 215 001c FFF7FEFF 		bl	IntToUnicode
 216              	.LVL14:
 341:USB_DEVICE/App/usbd_desc.c ****   }
 217              		.loc 1 341 5 is_stmt 1 view .LVU57
 218 0020 0422     		movs	r2, #4
 219 0022 044B     		ldr	r3, .L24+4
 220 0024 03F11001 		add	r1, r3, #16
 221 0028 2046     		mov	r0, r4
 222 002a FFF7FEFF 		bl	IntToUnicode
 223              	.LVL15:
 343:USB_DEVICE/App/usbd_desc.c **** 
 224              		.loc 1 343 1 is_stmt 0 view .LVU58
 225 002e 10BD     		pop	{r4, pc}
 226              	.LVL16:
 227              	.L25:
 343:USB_DEVICE/App/usbd_desc.c **** 
 228              		.loc 1 343 1 view .LVU59
 229              		.align	2
 230              	.L24:
 231 0030 00F0FF1F 		.word	536866816
 232 0034 02000000 		.word	USBD_StringSerial+2
 233              		.cfi_endproc
ARM GAS  C:\Temp\ccgG4KLl.s 			page 12


 234              	.LFE140:
 236              		.section	.text.USBD_FS_SerialStrDescriptor,"ax",%progbits
 237              		.align	1
 238              		.global	USBD_FS_SerialStrDescriptor
 239              		.syntax unified
 240              		.thumb
 241              		.thumb_func
 243              	USBD_FS_SerialStrDescriptor:
 244              	.LVL17:
 245              	.LFB137:
 270:USB_DEVICE/App/usbd_desc.c ****   UNUSED(speed);
 246              		.loc 1 270 1 is_stmt 1 view -0
 247              		.cfi_startproc
 248              		@ args = 0, pretend = 0, frame = 0
 249              		@ frame_needed = 0, uses_anonymous_args = 0
 270:USB_DEVICE/App/usbd_desc.c ****   UNUSED(speed);
 250              		.loc 1 270 1 is_stmt 0 view .LVU61
 251 0000 08B5     		push	{r3, lr}
 252              	.LCFI3:
 253              		.cfi_def_cfa_offset 8
 254              		.cfi_offset 3, -8
 255              		.cfi_offset 14, -4
 271:USB_DEVICE/App/usbd_desc.c ****   *length = USB_SIZ_STRING_SERIAL;
 256              		.loc 1 271 3 is_stmt 1 view .LVU62
 272:USB_DEVICE/App/usbd_desc.c **** 
 257              		.loc 1 272 3 view .LVU63
 272:USB_DEVICE/App/usbd_desc.c **** 
 258              		.loc 1 272 11 is_stmt 0 view .LVU64
 259 0002 1A23     		movs	r3, #26
 260 0004 0B80     		strh	r3, [r1]	@ movhi
 276:USB_DEVICE/App/usbd_desc.c ****   /* USER CODE BEGIN USBD_FS_SerialStrDescriptor */
 261              		.loc 1 276 3 is_stmt 1 view .LVU65
 262 0006 FFF7FEFF 		bl	Get_SerialNum
 263              	.LVL18:
 280:USB_DEVICE/App/usbd_desc.c **** }
 264              		.loc 1 280 3 view .LVU66
 281:USB_DEVICE/App/usbd_desc.c **** 
 265              		.loc 1 281 1 is_stmt 0 view .LVU67
 266 000a 0148     		ldr	r0, .L28
 267 000c 08BD     		pop	{r3, pc}
 268              	.L29:
 269 000e 00BF     		.align	2
 270              	.L28:
 271 0010 00000000 		.word	USBD_StringSerial
 272              		.cfi_endproc
 273              	.LFE137:
 275              		.section	.rodata.USBD_FS_ProductStrDescriptor.str1.4,"aMS",%progbits,1
 276              		.align	2
 277              	.LC0:
 278 0000 436F6E74 		.ascii	"Controller\000"
 278      726F6C6C 
 278      657200
 279              		.section	.text.USBD_FS_ProductStrDescriptor,"ax",%progbits
 280              		.align	1
 281              		.global	USBD_FS_ProductStrDescriptor
 282              		.syntax unified
 283              		.thumb
ARM GAS  C:\Temp\ccgG4KLl.s 			page 13


 284              		.thumb_func
 286              	USBD_FS_ProductStrDescriptor:
 287              	.LVL19:
 288              	.LFB135:
 238:USB_DEVICE/App/usbd_desc.c ****   if(speed == 0)
 289              		.loc 1 238 1 is_stmt 1 view -0
 290              		.cfi_startproc
 291              		@ args = 0, pretend = 0, frame = 0
 292              		@ frame_needed = 0, uses_anonymous_args = 0
 238:USB_DEVICE/App/usbd_desc.c ****   if(speed == 0)
 293              		.loc 1 238 1 is_stmt 0 view .LVU69
 294 0000 08B5     		push	{r3, lr}
 295              	.LCFI4:
 296              		.cfi_def_cfa_offset 8
 297              		.cfi_offset 3, -8
 298              		.cfi_offset 14, -4
 299 0002 0A46     		mov	r2, r1
 239:USB_DEVICE/App/usbd_desc.c ****   {
 300              		.loc 1 239 3 is_stmt 1 view .LVU70
 239:USB_DEVICE/App/usbd_desc.c ****   {
 301              		.loc 1 239 5 is_stmt 0 view .LVU71
 302 0004 28B9     		cbnz	r0, .L31
 241:USB_DEVICE/App/usbd_desc.c ****   }
 303              		.loc 1 241 5 is_stmt 1 view .LVU72
 304 0006 0549     		ldr	r1, .L34
 305              	.LVL20:
 241:USB_DEVICE/App/usbd_desc.c ****   }
 306              		.loc 1 241 5 is_stmt 0 view .LVU73
 307 0008 0548     		ldr	r0, .L34+4
 308              	.LVL21:
 241:USB_DEVICE/App/usbd_desc.c ****   }
 309              		.loc 1 241 5 view .LVU74
 310 000a FFF7FEFF 		bl	USBD_GetString
 311              	.LVL22:
 312              	.L32:
 247:USB_DEVICE/App/usbd_desc.c **** }
 313              		.loc 1 247 3 is_stmt 1 view .LVU75
 248:USB_DEVICE/App/usbd_desc.c **** 
 314              		.loc 1 248 1 is_stmt 0 view .LVU76
 315 000e 0348     		ldr	r0, .L34
 316 0010 08BD     		pop	{r3, pc}
 317              	.LVL23:
 318              	.L31:
 245:USB_DEVICE/App/usbd_desc.c ****   }
 319              		.loc 1 245 5 is_stmt 1 view .LVU77
 320 0012 0249     		ldr	r1, .L34
 321              	.LVL24:
 245:USB_DEVICE/App/usbd_desc.c ****   }
 322              		.loc 1 245 5 is_stmt 0 view .LVU78
 323 0014 0248     		ldr	r0, .L34+4
 324              	.LVL25:
 245:USB_DEVICE/App/usbd_desc.c ****   }
 325              		.loc 1 245 5 view .LVU79
 326 0016 FFF7FEFF 		bl	USBD_GetString
 327              	.LVL26:
 245:USB_DEVICE/App/usbd_desc.c ****   }
 328              		.loc 1 245 5 view .LVU80
ARM GAS  C:\Temp\ccgG4KLl.s 			page 14


 329 001a F8E7     		b	.L32
 330              	.L35:
 331              		.align	2
 332              	.L34:
 333 001c 00000000 		.word	USBD_StrDesc
 334 0020 00000000 		.word	.LC0
 335              		.cfi_endproc
 336              	.LFE135:
 338              		.section	.rodata.USBD_FS_ManufacturerStrDescriptor.str1.4,"aMS",%progbits,1
 339              		.align	2
 340              	.LC1:
 341 0000 4D696372 		.ascii	"Microsoft\000"
 341      6F736F66 
 341      7400
 342              		.section	.text.USBD_FS_ManufacturerStrDescriptor,"ax",%progbits
 343              		.align	1
 344              		.global	USBD_FS_ManufacturerStrDescriptor
 345              		.syntax unified
 346              		.thumb
 347              		.thumb_func
 349              	USBD_FS_ManufacturerStrDescriptor:
 350              	.LVL27:
 351              	.LFB136:
 257:USB_DEVICE/App/usbd_desc.c ****   UNUSED(speed);
 352              		.loc 1 257 1 is_stmt 1 view -0
 353              		.cfi_startproc
 354              		@ args = 0, pretend = 0, frame = 0
 355              		@ frame_needed = 0, uses_anonymous_args = 0
 257:USB_DEVICE/App/usbd_desc.c ****   UNUSED(speed);
 356              		.loc 1 257 1 is_stmt 0 view .LVU82
 357 0000 10B5     		push	{r4, lr}
 358              	.LCFI5:
 359              		.cfi_def_cfa_offset 8
 360              		.cfi_offset 4, -8
 361              		.cfi_offset 14, -4
 362 0002 0A46     		mov	r2, r1
 258:USB_DEVICE/App/usbd_desc.c ****   USBD_GetString((uint8_t *)USBD_MANUFACTURER_STRING, USBD_StrDesc, length);
 363              		.loc 1 258 3 is_stmt 1 view .LVU83
 259:USB_DEVICE/App/usbd_desc.c ****   return USBD_StrDesc;
 364              		.loc 1 259 3 view .LVU84
 365 0004 034C     		ldr	r4, .L38
 366 0006 2146     		mov	r1, r4
 367              	.LVL28:
 259:USB_DEVICE/App/usbd_desc.c ****   return USBD_StrDesc;
 368              		.loc 1 259 3 is_stmt 0 view .LVU85
 369 0008 0348     		ldr	r0, .L38+4
 370              	.LVL29:
 259:USB_DEVICE/App/usbd_desc.c ****   return USBD_StrDesc;
 371              		.loc 1 259 3 view .LVU86
 372 000a FFF7FEFF 		bl	USBD_GetString
 373              	.LVL30:
 260:USB_DEVICE/App/usbd_desc.c **** }
 374              		.loc 1 260 3 is_stmt 1 view .LVU87
 261:USB_DEVICE/App/usbd_desc.c **** 
 375              		.loc 1 261 1 is_stmt 0 view .LVU88
 376 000e 2046     		mov	r0, r4
 377 0010 10BD     		pop	{r4, pc}
ARM GAS  C:\Temp\ccgG4KLl.s 			page 15


 378              	.L39:
 379 0012 00BF     		.align	2
 380              	.L38:
 381 0014 00000000 		.word	USBD_StrDesc
 382 0018 00000000 		.word	.LC1
 383              		.cfi_endproc
 384              	.LFE136:
 386              		.section	.rodata.USBD_FS_ConfigStrDescriptor.str1.4,"aMS",%progbits,1
 387              		.align	2
 388              	.LC2:
 389 0000 436F6E66 		.ascii	"Config\000"
 389      696700
 390              		.section	.text.USBD_FS_ConfigStrDescriptor,"ax",%progbits
 391              		.align	1
 392              		.global	USBD_FS_ConfigStrDescriptor
 393              		.syntax unified
 394              		.thumb
 395              		.thumb_func
 397              	USBD_FS_ConfigStrDescriptor:
 398              	.LVL31:
 399              	.LFB138:
 290:USB_DEVICE/App/usbd_desc.c ****   if(speed == USBD_SPEED_HIGH)
 400              		.loc 1 290 1 is_stmt 1 view -0
 401              		.cfi_startproc
 402              		@ args = 0, pretend = 0, frame = 0
 403              		@ frame_needed = 0, uses_anonymous_args = 0
 290:USB_DEVICE/App/usbd_desc.c ****   if(speed == USBD_SPEED_HIGH)
 404              		.loc 1 290 1 is_stmt 0 view .LVU90
 405 0000 08B5     		push	{r3, lr}
 406              	.LCFI6:
 407              		.cfi_def_cfa_offset 8
 408              		.cfi_offset 3, -8
 409              		.cfi_offset 14, -4
 410 0002 0A46     		mov	r2, r1
 291:USB_DEVICE/App/usbd_desc.c ****   {
 411              		.loc 1 291 3 is_stmt 1 view .LVU91
 291:USB_DEVICE/App/usbd_desc.c ****   {
 412              		.loc 1 291 5 is_stmt 0 view .LVU92
 413 0004 28B9     		cbnz	r0, .L41
 293:USB_DEVICE/App/usbd_desc.c ****   }
 414              		.loc 1 293 5 is_stmt 1 view .LVU93
 415 0006 0549     		ldr	r1, .L44
 416              	.LVL32:
 293:USB_DEVICE/App/usbd_desc.c ****   }
 417              		.loc 1 293 5 is_stmt 0 view .LVU94
 418 0008 0548     		ldr	r0, .L44+4
 419              	.LVL33:
 293:USB_DEVICE/App/usbd_desc.c ****   }
 420              		.loc 1 293 5 view .LVU95
 421 000a FFF7FEFF 		bl	USBD_GetString
 422              	.LVL34:
 423              	.L42:
 299:USB_DEVICE/App/usbd_desc.c **** }
 424              		.loc 1 299 3 is_stmt 1 view .LVU96
 300:USB_DEVICE/App/usbd_desc.c **** 
 425              		.loc 1 300 1 is_stmt 0 view .LVU97
 426 000e 0348     		ldr	r0, .L44
ARM GAS  C:\Temp\ccgG4KLl.s 			page 16


 427 0010 08BD     		pop	{r3, pc}
 428              	.LVL35:
 429              	.L41:
 297:USB_DEVICE/App/usbd_desc.c ****   }
 430              		.loc 1 297 5 is_stmt 1 view .LVU98
 431 0012 0249     		ldr	r1, .L44
 432              	.LVL36:
 297:USB_DEVICE/App/usbd_desc.c ****   }
 433              		.loc 1 297 5 is_stmt 0 view .LVU99
 434 0014 0248     		ldr	r0, .L44+4
 435              	.LVL37:
 297:USB_DEVICE/App/usbd_desc.c ****   }
 436              		.loc 1 297 5 view .LVU100
 437 0016 FFF7FEFF 		bl	USBD_GetString
 438              	.LVL38:
 297:USB_DEVICE/App/usbd_desc.c ****   }
 439              		.loc 1 297 5 view .LVU101
 440 001a F8E7     		b	.L42
 441              	.L45:
 442              		.align	2
 443              	.L44:
 444 001c 00000000 		.word	USBD_StrDesc
 445 0020 00000000 		.word	.LC2
 446              		.cfi_endproc
 447              	.LFE138:
 449              		.section	.rodata.USBD_FS_InterfaceStrDescriptor.str1.4,"aMS",%progbits,1
 450              		.align	2
 451              	.LC3:
 452 0000 496E7465 		.ascii	"Interface\000"
 452      72666163 
 452      6500
 453              		.section	.text.USBD_FS_InterfaceStrDescriptor,"ax",%progbits
 454              		.align	1
 455              		.global	USBD_FS_InterfaceStrDescriptor
 456              		.syntax unified
 457              		.thumb
 458              		.thumb_func
 460              	USBD_FS_InterfaceStrDescriptor:
 461              	.LVL39:
 462              	.LFB139:
 309:USB_DEVICE/App/usbd_desc.c ****   if(speed == 0)
 463              		.loc 1 309 1 is_stmt 1 view -0
 464              		.cfi_startproc
 465              		@ args = 0, pretend = 0, frame = 0
 466              		@ frame_needed = 0, uses_anonymous_args = 0
 309:USB_DEVICE/App/usbd_desc.c ****   if(speed == 0)
 467              		.loc 1 309 1 is_stmt 0 view .LVU103
 468 0000 08B5     		push	{r3, lr}
 469              	.LCFI7:
 470              		.cfi_def_cfa_offset 8
 471              		.cfi_offset 3, -8
 472              		.cfi_offset 14, -4
 473 0002 0A46     		mov	r2, r1
 310:USB_DEVICE/App/usbd_desc.c ****   {
 474              		.loc 1 310 3 is_stmt 1 view .LVU104
 310:USB_DEVICE/App/usbd_desc.c ****   {
 475              		.loc 1 310 5 is_stmt 0 view .LVU105
ARM GAS  C:\Temp\ccgG4KLl.s 			page 17


 476 0004 28B9     		cbnz	r0, .L47
 312:USB_DEVICE/App/usbd_desc.c ****   }
 477              		.loc 1 312 5 is_stmt 1 view .LVU106
 478 0006 0549     		ldr	r1, .L50
 479              	.LVL40:
 312:USB_DEVICE/App/usbd_desc.c ****   }
 480              		.loc 1 312 5 is_stmt 0 view .LVU107
 481 0008 0548     		ldr	r0, .L50+4
 482              	.LVL41:
 312:USB_DEVICE/App/usbd_desc.c ****   }
 483              		.loc 1 312 5 view .LVU108
 484 000a FFF7FEFF 		bl	USBD_GetString
 485              	.LVL42:
 486              	.L48:
 318:USB_DEVICE/App/usbd_desc.c **** }
 487              		.loc 1 318 3 is_stmt 1 view .LVU109
 319:USB_DEVICE/App/usbd_desc.c **** 
 488              		.loc 1 319 1 is_stmt 0 view .LVU110
 489 000e 0348     		ldr	r0, .L50
 490 0010 08BD     		pop	{r3, pc}
 491              	.LVL43:
 492              	.L47:
 316:USB_DEVICE/App/usbd_desc.c ****   }
 493              		.loc 1 316 5 is_stmt 1 view .LVU111
 494 0012 0249     		ldr	r1, .L50
 495              	.LVL44:
 316:USB_DEVICE/App/usbd_desc.c ****   }
 496              		.loc 1 316 5 is_stmt 0 view .LVU112
 497 0014 0248     		ldr	r0, .L50+4
 498              	.LVL45:
 316:USB_DEVICE/App/usbd_desc.c ****   }
 499              		.loc 1 316 5 view .LVU113
 500 0016 FFF7FEFF 		bl	USBD_GetString
 501              	.LVL46:
 316:USB_DEVICE/App/usbd_desc.c ****   }
 502              		.loc 1 316 5 view .LVU114
 503 001a F8E7     		b	.L48
 504              	.L51:
 505              		.align	2
 506              	.L50:
 507 001c 00000000 		.word	USBD_StrDesc
 508 0020 00000000 		.word	.LC3
 509              		.cfi_endproc
 510              	.LFE139:
 512              		.global	USBD_StringSerial
 513              		.section	.data.USBD_StringSerial,"aw"
 514              		.align	2
 517              	USBD_StringSerial:
 518 0000 1A0300   		.ascii	"\032\003\000"
 519 0003 00000000 		.space	23
 519      00000000 
 519      00000000 
 519      00000000 
 519      00000000 
 520              		.global	USBD_StrDesc
 521              		.section	.bss.USBD_StrDesc,"aw",%nobits
 522              		.align	2
ARM GAS  C:\Temp\ccgG4KLl.s 			page 18


 525              	USBD_StrDesc:
 526 0000 00000000 		.space	512
 526      00000000 
 526      00000000 
 526      00000000 
 526      00000000 
 527              		.global	USBD_LangIDDesc
 528              		.section	.data.USBD_LangIDDesc,"aw"
 529              		.align	2
 532              	USBD_LangIDDesc:
 533 0000 04030904 		.ascii	"\004\003\011\004"
 534              		.global	USBD_FS_DeviceDesc
 535              		.section	.data.USBD_FS_DeviceDesc,"aw"
 536              		.align	2
 539              	USBD_FS_DeviceDesc:
 540 0000 12010002 		.ascii	"\022\001\000\002\357\002\001@^\004\216\002\024\002\001"
 540      EF020140 
 540      5E048E02 
 540      140201
 541 000f 020301   		.ascii	"\002\003\001"
 542              		.global	FS_Desc
 543              		.section	.data.FS_Desc,"aw"
 544              		.align	2
 547              	FS_Desc:
 548 0000 00000000 		.word	USBD_FS_DeviceDescriptor
 549 0004 00000000 		.word	USBD_FS_LangIDStrDescriptor
 550 0008 00000000 		.word	USBD_FS_ManufacturerStrDescriptor
 551 000c 00000000 		.word	USBD_FS_ProductStrDescriptor
 552 0010 00000000 		.word	USBD_FS_SerialStrDescriptor
 553 0014 00000000 		.word	USBD_FS_ConfigStrDescriptor
 554 0018 00000000 		.word	USBD_FS_InterfaceStrDescriptor
 555              		.text
 556              	.Letext0:
 557              		.file 2 "C:/TOOL/arm-none-eabi/include/machine/_default_types.h"
 558              		.file 3 "C:/TOOL/arm-none-eabi/include/sys/_stdint.h"
 559              		.file 4 "Middlewares/ST/STM32_USB_Device_Library/Core/Inc/usbd_def.h"
 560              		.file 5 "USB_DEVICE/App/usbd_desc.h"
 561              		.file 6 "Middlewares/ST/STM32_USB_Device_Library/Core/Inc/usbd_ctlreq.h"
ARM GAS  C:\Temp\ccgG4KLl.s 			page 19

