ARM GAS  C:\Temp\ccW5xNH5.s 			page 1


   1              		.cpu cortex-m4
   2              		.arch armv7e-m
   3              		.fpu fpv4-sp-d16
   4              		.eabi_attribute 27, 1
   5              		.eabi_attribute 28, 1
   6              		.eabi_attribute 20, 1
   7              		.eabi_attribute 21, 1
   8              		.eabi_attribute 23, 3
   9              		.eabi_attribute 24, 1
  10              		.eabi_attribute 25, 1
  11              		.eabi_attribute 26, 1
  12              		.eabi_attribute 30, 1
  13              		.eabi_attribute 34, 1
  14              		.eabi_attribute 18, 4
  15              		.file	"usbd_conf.c"
  16              		.text
  17              	.Ltext0:
  18              		.cfi_sections	.debug_frame
  19              		.file 1 "USB_DEVICE/Target/usbd_conf.c"
  20              		.section	.text.USBD_Get_USB_Status,"ax",%progbits
  21              		.align	1
  22              		.syntax unified
  23              		.thumb
  24              		.thumb_func
  26              	USBD_Get_USB_Status:
  27              	.LVL0:
  28              	.LFB164:
   1:USB_DEVICE/Target/usbd_conf.c **** /* USER CODE BEGIN Header */
   2:USB_DEVICE/Target/usbd_conf.c **** /**
   3:USB_DEVICE/Target/usbd_conf.c ****   ******************************************************************************
   4:USB_DEVICE/Target/usbd_conf.c ****   * @file           : Target/usbd_conf.c
   5:USB_DEVICE/Target/usbd_conf.c ****   * @version        : v2.0_Cube
   6:USB_DEVICE/Target/usbd_conf.c ****   * @brief          : This file implements the board support package for the USB device library
   7:USB_DEVICE/Target/usbd_conf.c ****   ******************************************************************************
   8:USB_DEVICE/Target/usbd_conf.c ****   */
   9:USB_DEVICE/Target/usbd_conf.c **** /* USER CODE END Header */
  10:USB_DEVICE/Target/usbd_conf.c **** 
  11:USB_DEVICE/Target/usbd_conf.c **** /* Includes ------------------------------------------------------------------*/
  12:USB_DEVICE/Target/usbd_conf.c **** #include "stm32f3xx.h"
  13:USB_DEVICE/Target/usbd_conf.c **** #include "stm32f3xx_hal.h"
  14:USB_DEVICE/Target/usbd_conf.c **** #include "usbd_def.h"
  15:USB_DEVICE/Target/usbd_conf.c **** #include "usbd_core.h"
  16:USB_DEVICE/Target/usbd_conf.c **** #include "usbd_hid.h"
  17:USB_DEVICE/Target/usbd_conf.c **** 
  18:USB_DEVICE/Target/usbd_conf.c **** PCD_HandleTypeDef hpcd_USB_FS;
  19:USB_DEVICE/Target/usbd_conf.c **** void Error_Handler(void);
  20:USB_DEVICE/Target/usbd_conf.c **** 
  21:USB_DEVICE/Target/usbd_conf.c **** static USBD_StatusTypeDef USBD_Get_USB_Status(HAL_StatusTypeDef hal_status);
  22:USB_DEVICE/Target/usbd_conf.c **** void HAL_PCDEx_SetConnectionState(PCD_HandleTypeDef *hpcd, uint8_t state);
  23:USB_DEVICE/Target/usbd_conf.c **** 
  24:USB_DEVICE/Target/usbd_conf.c **** /*******************************************************************************
  25:USB_DEVICE/Target/usbd_conf.c ****                        LL Driver Callbacks (PCD -> USB Device Library)
  26:USB_DEVICE/Target/usbd_conf.c **** *******************************************************************************/
  27:USB_DEVICE/Target/usbd_conf.c **** 
  28:USB_DEVICE/Target/usbd_conf.c **** void HAL_PCD_MspInit(PCD_HandleTypeDef* pcdHandle)
  29:USB_DEVICE/Target/usbd_conf.c **** {
  30:USB_DEVICE/Target/usbd_conf.c ****   GPIO_InitTypeDef GPIO_InitStruct = {0};
ARM GAS  C:\Temp\ccW5xNH5.s 			page 2


  31:USB_DEVICE/Target/usbd_conf.c ****   if(pcdHandle->Instance==USB)
  32:USB_DEVICE/Target/usbd_conf.c ****   {
  33:USB_DEVICE/Target/usbd_conf.c ****     __HAL_RCC_GPIOA_CLK_ENABLE();
  34:USB_DEVICE/Target/usbd_conf.c ****     /**USB GPIO Configuration
  35:USB_DEVICE/Target/usbd_conf.c ****     PA11     ------> USB_DM
  36:USB_DEVICE/Target/usbd_conf.c ****     PA12     ------> USB_DP
  37:USB_DEVICE/Target/usbd_conf.c ****     */
  38:USB_DEVICE/Target/usbd_conf.c ****     GPIO_InitStruct.Pin = GPIO_PIN_11|GPIO_PIN_12;
  39:USB_DEVICE/Target/usbd_conf.c ****     GPIO_InitStruct.Mode = GPIO_MODE_AF_PP;
  40:USB_DEVICE/Target/usbd_conf.c ****     GPIO_InitStruct.Pull = GPIO_NOPULL;
  41:USB_DEVICE/Target/usbd_conf.c ****     GPIO_InitStruct.Speed = GPIO_SPEED_FREQ_HIGH;
  42:USB_DEVICE/Target/usbd_conf.c ****     GPIO_InitStruct.Alternate = GPIO_AF14_USB;
  43:USB_DEVICE/Target/usbd_conf.c ****     HAL_GPIO_Init(GPIOA, &GPIO_InitStruct);
  44:USB_DEVICE/Target/usbd_conf.c **** 
  45:USB_DEVICE/Target/usbd_conf.c ****     /* Peripheral clock enable */
  46:USB_DEVICE/Target/usbd_conf.c ****     __HAL_RCC_USB_CLK_ENABLE();
  47:USB_DEVICE/Target/usbd_conf.c **** 
  48:USB_DEVICE/Target/usbd_conf.c ****     /* Peripheral interrupt init */
  49:USB_DEVICE/Target/usbd_conf.c ****     HAL_NVIC_SetPriority(USB_LP_CAN_RX0_IRQn, 0, 0);
  50:USB_DEVICE/Target/usbd_conf.c ****     HAL_NVIC_EnableIRQ(USB_LP_CAN_RX0_IRQn);
  51:USB_DEVICE/Target/usbd_conf.c ****   }
  52:USB_DEVICE/Target/usbd_conf.c **** }
  53:USB_DEVICE/Target/usbd_conf.c **** 
  54:USB_DEVICE/Target/usbd_conf.c **** void HAL_PCD_MspDeInit(PCD_HandleTypeDef* pcdHandle)
  55:USB_DEVICE/Target/usbd_conf.c **** {
  56:USB_DEVICE/Target/usbd_conf.c ****   if(pcdHandle->Instance==USB)
  57:USB_DEVICE/Target/usbd_conf.c ****   {
  58:USB_DEVICE/Target/usbd_conf.c ****     __HAL_RCC_USB_CLK_DISABLE();
  59:USB_DEVICE/Target/usbd_conf.c ****     HAL_GPIO_DeInit(GPIOA, GPIO_PIN_11|GPIO_PIN_12);
  60:USB_DEVICE/Target/usbd_conf.c ****     HAL_NVIC_DisableIRQ(USB_LP_CAN_RX0_IRQn);
  61:USB_DEVICE/Target/usbd_conf.c ****   }
  62:USB_DEVICE/Target/usbd_conf.c **** }
  63:USB_DEVICE/Target/usbd_conf.c **** 
  64:USB_DEVICE/Target/usbd_conf.c **** void HAL_PCD_SetupStageCallback(PCD_HandleTypeDef *hpcd)
  65:USB_DEVICE/Target/usbd_conf.c **** {
  66:USB_DEVICE/Target/usbd_conf.c ****   USBD_LL_SetupStage((USBD_HandleTypeDef*)hpcd->pData, (uint8_t *)hpcd->Setup);
  67:USB_DEVICE/Target/usbd_conf.c **** }
  68:USB_DEVICE/Target/usbd_conf.c **** 
  69:USB_DEVICE/Target/usbd_conf.c **** void HAL_PCD_DataOutStageCallback(PCD_HandleTypeDef *hpcd, uint8_t epnum)
  70:USB_DEVICE/Target/usbd_conf.c **** {
  71:USB_DEVICE/Target/usbd_conf.c ****   USBD_LL_DataOutStage((USBD_HandleTypeDef*)hpcd->pData, epnum, hpcd->OUT_ep[epnum].xfer_buff);
  72:USB_DEVICE/Target/usbd_conf.c **** }
  73:USB_DEVICE/Target/usbd_conf.c **** 
  74:USB_DEVICE/Target/usbd_conf.c **** void HAL_PCD_DataInStageCallback(PCD_HandleTypeDef *hpcd, uint8_t epnum)
  75:USB_DEVICE/Target/usbd_conf.c **** {
  76:USB_DEVICE/Target/usbd_conf.c ****   USBD_LL_DataInStage((USBD_HandleTypeDef*)hpcd->pData, epnum, hpcd->IN_ep[epnum].xfer_buff);
  77:USB_DEVICE/Target/usbd_conf.c **** }
  78:USB_DEVICE/Target/usbd_conf.c **** 
  79:USB_DEVICE/Target/usbd_conf.c **** void HAL_PCD_SOFCallback(PCD_HandleTypeDef *hpcd)
  80:USB_DEVICE/Target/usbd_conf.c **** {
  81:USB_DEVICE/Target/usbd_conf.c ****   USBD_LL_SOF((USBD_HandleTypeDef*)hpcd->pData);
  82:USB_DEVICE/Target/usbd_conf.c **** }
  83:USB_DEVICE/Target/usbd_conf.c **** 
  84:USB_DEVICE/Target/usbd_conf.c **** void HAL_PCD_ResetCallback(PCD_HandleTypeDef *hpcd)
  85:USB_DEVICE/Target/usbd_conf.c **** {
  86:USB_DEVICE/Target/usbd_conf.c ****   USBD_SpeedTypeDef speed = USBD_SPEED_FULL;
  87:USB_DEVICE/Target/usbd_conf.c ****   if ( hpcd->Init.speed != PCD_SPEED_FULL)
ARM GAS  C:\Temp\ccW5xNH5.s 			page 3


  88:USB_DEVICE/Target/usbd_conf.c ****   {
  89:USB_DEVICE/Target/usbd_conf.c ****     Error_Handler();
  90:USB_DEVICE/Target/usbd_conf.c ****   }
  91:USB_DEVICE/Target/usbd_conf.c ****   USBD_LL_SetSpeed((USBD_HandleTypeDef*)hpcd->pData, speed);
  92:USB_DEVICE/Target/usbd_conf.c ****   USBD_LL_Reset((USBD_HandleTypeDef*)hpcd->pData);
  93:USB_DEVICE/Target/usbd_conf.c **** }
  94:USB_DEVICE/Target/usbd_conf.c **** 
  95:USB_DEVICE/Target/usbd_conf.c **** void HAL_PCD_SuspendCallback(PCD_HandleTypeDef *hpcd)
  96:USB_DEVICE/Target/usbd_conf.c **** {
  97:USB_DEVICE/Target/usbd_conf.c ****   USBD_LL_Suspend((USBD_HandleTypeDef*)hpcd->pData);
  98:USB_DEVICE/Target/usbd_conf.c ****   if (hpcd->Init.low_power_enable)
  99:USB_DEVICE/Target/usbd_conf.c ****   {
 100:USB_DEVICE/Target/usbd_conf.c ****     SCB->SCR |= (uint32_t)((uint32_t)(SCB_SCR_SLEEPDEEP_Msk | SCB_SCR_SLEEPONEXIT_Msk));
 101:USB_DEVICE/Target/usbd_conf.c ****   }
 102:USB_DEVICE/Target/usbd_conf.c **** }
 103:USB_DEVICE/Target/usbd_conf.c **** 
 104:USB_DEVICE/Target/usbd_conf.c **** void HAL_PCD_ResumeCallback(PCD_HandleTypeDef *hpcd)
 105:USB_DEVICE/Target/usbd_conf.c **** {
 106:USB_DEVICE/Target/usbd_conf.c ****   USBD_LL_Resume((USBD_HandleTypeDef*)hpcd->pData);
 107:USB_DEVICE/Target/usbd_conf.c **** }
 108:USB_DEVICE/Target/usbd_conf.c **** 
 109:USB_DEVICE/Target/usbd_conf.c **** void HAL_PCD_ISOOUTIncompleteCallback(PCD_HandleTypeDef *hpcd, uint8_t epnum)
 110:USB_DEVICE/Target/usbd_conf.c **** {
 111:USB_DEVICE/Target/usbd_conf.c ****   USBD_LL_IsoOUTIncomplete((USBD_HandleTypeDef*)hpcd->pData, epnum);
 112:USB_DEVICE/Target/usbd_conf.c **** }
 113:USB_DEVICE/Target/usbd_conf.c **** 
 114:USB_DEVICE/Target/usbd_conf.c **** void HAL_PCD_ISOINIncompleteCallback(PCD_HandleTypeDef *hpcd, uint8_t epnum)
 115:USB_DEVICE/Target/usbd_conf.c **** {
 116:USB_DEVICE/Target/usbd_conf.c ****   USBD_LL_IsoINIncomplete((USBD_HandleTypeDef*)hpcd->pData, epnum);
 117:USB_DEVICE/Target/usbd_conf.c **** }
 118:USB_DEVICE/Target/usbd_conf.c **** 
 119:USB_DEVICE/Target/usbd_conf.c **** void HAL_PCD_ConnectCallback(PCD_HandleTypeDef *hpcd)
 120:USB_DEVICE/Target/usbd_conf.c **** {
 121:USB_DEVICE/Target/usbd_conf.c ****   USBD_LL_DevConnected((USBD_HandleTypeDef*)hpcd->pData);
 122:USB_DEVICE/Target/usbd_conf.c **** }
 123:USB_DEVICE/Target/usbd_conf.c **** 
 124:USB_DEVICE/Target/usbd_conf.c **** void HAL_PCD_DisconnectCallback(PCD_HandleTypeDef *hpcd)
 125:USB_DEVICE/Target/usbd_conf.c **** {
 126:USB_DEVICE/Target/usbd_conf.c ****   USBD_LL_DevDisconnected((USBD_HandleTypeDef*)hpcd->pData);
 127:USB_DEVICE/Target/usbd_conf.c **** }
 128:USB_DEVICE/Target/usbd_conf.c **** 
 129:USB_DEVICE/Target/usbd_conf.c **** /*******************************************************************************
 130:USB_DEVICE/Target/usbd_conf.c ****                        LL Driver Interface (USB Device Library --> PCD)
 131:USB_DEVICE/Target/usbd_conf.c **** *******************************************************************************/
 132:USB_DEVICE/Target/usbd_conf.c **** 
 133:USB_DEVICE/Target/usbd_conf.c **** USBD_StatusTypeDef USBD_LL_Init(USBD_HandleTypeDef *pdev)
 134:USB_DEVICE/Target/usbd_conf.c **** {
 135:USB_DEVICE/Target/usbd_conf.c ****   hpcd_USB_FS.pData = pdev;
 136:USB_DEVICE/Target/usbd_conf.c ****   pdev->pData = &hpcd_USB_FS;
 137:USB_DEVICE/Target/usbd_conf.c **** 
 138:USB_DEVICE/Target/usbd_conf.c ****   hpcd_USB_FS.Instance = USB;
 139:USB_DEVICE/Target/usbd_conf.c ****   hpcd_USB_FS.Init.dev_endpoints = 8;
 140:USB_DEVICE/Target/usbd_conf.c ****   hpcd_USB_FS.Init.speed = PCD_SPEED_FULL;
 141:USB_DEVICE/Target/usbd_conf.c ****   hpcd_USB_FS.Init.phy_itface = PCD_PHY_EMBEDDED;
 142:USB_DEVICE/Target/usbd_conf.c ****   hpcd_USB_FS.Init.low_power_enable = DISABLE;
 143:USB_DEVICE/Target/usbd_conf.c ****   hpcd_USB_FS.Init.battery_charging_enable = DISABLE;
 144:USB_DEVICE/Target/usbd_conf.c ****   if (HAL_PCD_Init(&hpcd_USB_FS) != HAL_OK)
ARM GAS  C:\Temp\ccW5xNH5.s 			page 4


 145:USB_DEVICE/Target/usbd_conf.c ****   {
 146:USB_DEVICE/Target/usbd_conf.c ****     Error_Handler( );
 147:USB_DEVICE/Target/usbd_conf.c ****   }
 148:USB_DEVICE/Target/usbd_conf.c **** 
 149:USB_DEVICE/Target/usbd_conf.c ****   // â˜…ä¿®æ­£ç®‡æ‰€: ã‚¨ãƒ©ãƒ¼ã®åŽŸå› ã¨ãªã£ã¦ã„ãŸã‚³ãƒ¼ãƒ«ãƒãƒƒã‚¯ç™»éŒ²é–¢æ•°ç¾¤ã‚’å‰Šé™
 150:USB_DEVICE/Target/usbd_conf.c ****   // ä¸Šè¨˜ã§å®šç¾©ã—ãŸ HAL_PCD_xxxCallback é–¢æ•°ãŒè‡ªå‹•çš„ã«å‘¼ã°ã‚Œã‚‹ãŸã‚ä¸è¦ã§ã™ã
 151:USB_DEVICE/Target/usbd_conf.c **** 
 152:USB_DEVICE/Target/usbd_conf.c ****   /* USER CODE BEGIN EndPoint_Configuration */
 153:USB_DEVICE/Target/usbd_conf.c ****   // EP0
 154:USB_DEVICE/Target/usbd_conf.c ****   HAL_PCDEx_PMAConfig((PCD_HandleTypeDef*)pdev->pData , 0x00 , PCD_SNG_BUF, 0x18);
 155:USB_DEVICE/Target/usbd_conf.c ****   HAL_PCDEx_PMAConfig((PCD_HandleTypeDef*)pdev->pData , 0x80 , PCD_SNG_BUF, 0x58);
 156:USB_DEVICE/Target/usbd_conf.c ****   /* USER CODE END EndPoint_Configuration */
 157:USB_DEVICE/Target/usbd_conf.c ****   
 158:USB_DEVICE/Target/usbd_conf.c ****   /* USER CODE BEGIN EndPoint_Configuration_HID */
 159:USB_DEVICE/Target/usbd_conf.c ****   // å…¨ã‚¨ãƒ³ãƒ‰ãƒã‚¤ãƒ³ãƒˆã®ãƒ¡ãƒ¢ãƒªå‰²ã‚Šå½“ã¦
 160:USB_DEVICE/Target/usbd_conf.c ****   // XInput (EP 1, EP 2)
 161:USB_DEVICE/Target/usbd_conf.c ****   HAL_PCDEx_PMAConfig((PCD_HandleTypeDef*)pdev->pData , 0x81 , PCD_SNG_BUF, 0x98);  // IN
 162:USB_DEVICE/Target/usbd_conf.c ****   HAL_PCDEx_PMAConfig((PCD_HandleTypeDef*)pdev->pData , 0x02 , PCD_SNG_BUF, 0xD8);  // OUT
 163:USB_DEVICE/Target/usbd_conf.c **** 
 164:USB_DEVICE/Target/usbd_conf.c ****   // WebHID (EP 3)
 165:USB_DEVICE/Target/usbd_conf.c ****   HAL_PCDEx_PMAConfig((PCD_HandleTypeDef*)pdev->pData , 0x83 , PCD_SNG_BUF, 0x118); // IN
 166:USB_DEVICE/Target/usbd_conf.c ****   HAL_PCDEx_PMAConfig((PCD_HandleTypeDef*)pdev->pData , 0x03 , PCD_SNG_BUF, 0x158); // OUT
 167:USB_DEVICE/Target/usbd_conf.c ****   /* USER CODE END EndPoint_Configuration_HID */
 168:USB_DEVICE/Target/usbd_conf.c ****   
 169:USB_DEVICE/Target/usbd_conf.c ****   return USBD_OK;
 170:USB_DEVICE/Target/usbd_conf.c **** }
 171:USB_DEVICE/Target/usbd_conf.c **** 
 172:USB_DEVICE/Target/usbd_conf.c **** USBD_StatusTypeDef USBD_LL_DeInit(USBD_HandleTypeDef *pdev)
 173:USB_DEVICE/Target/usbd_conf.c **** {
 174:USB_DEVICE/Target/usbd_conf.c ****   HAL_StatusTypeDef hal_status = HAL_OK;
 175:USB_DEVICE/Target/usbd_conf.c ****   USBD_StatusTypeDef usb_status = USBD_OK;
 176:USB_DEVICE/Target/usbd_conf.c ****   hal_status = HAL_PCD_DeInit(pdev->pData);
 177:USB_DEVICE/Target/usbd_conf.c ****   usb_status =  USBD_Get_USB_Status(hal_status);
 178:USB_DEVICE/Target/usbd_conf.c ****   return usb_status;
 179:USB_DEVICE/Target/usbd_conf.c **** }
 180:USB_DEVICE/Target/usbd_conf.c **** 
 181:USB_DEVICE/Target/usbd_conf.c **** USBD_StatusTypeDef USBD_LL_Start(USBD_HandleTypeDef *pdev)
 182:USB_DEVICE/Target/usbd_conf.c **** {
 183:USB_DEVICE/Target/usbd_conf.c ****   HAL_StatusTypeDef hal_status = HAL_OK;
 184:USB_DEVICE/Target/usbd_conf.c ****   USBD_StatusTypeDef usb_status = USBD_OK;
 185:USB_DEVICE/Target/usbd_conf.c ****   hal_status = HAL_PCD_Start(pdev->pData);
 186:USB_DEVICE/Target/usbd_conf.c ****   usb_status =  USBD_Get_USB_Status(hal_status);
 187:USB_DEVICE/Target/usbd_conf.c ****   return usb_status;
 188:USB_DEVICE/Target/usbd_conf.c **** }
 189:USB_DEVICE/Target/usbd_conf.c **** 
 190:USB_DEVICE/Target/usbd_conf.c **** USBD_StatusTypeDef USBD_LL_Stop(USBD_HandleTypeDef *pdev)
 191:USB_DEVICE/Target/usbd_conf.c **** {
 192:USB_DEVICE/Target/usbd_conf.c ****   HAL_StatusTypeDef hal_status = HAL_OK;
 193:USB_DEVICE/Target/usbd_conf.c ****   USBD_StatusTypeDef usb_status = USBD_OK;
 194:USB_DEVICE/Target/usbd_conf.c ****   hal_status = HAL_PCD_Stop(pdev->pData);
 195:USB_DEVICE/Target/usbd_conf.c ****   usb_status =  USBD_Get_USB_Status(hal_status);
 196:USB_DEVICE/Target/usbd_conf.c ****   return usb_status;
 197:USB_DEVICE/Target/usbd_conf.c **** }
 198:USB_DEVICE/Target/usbd_conf.c **** 
 199:USB_DEVICE/Target/usbd_conf.c **** USBD_StatusTypeDef USBD_LL_OpenEP(USBD_HandleTypeDef *pdev, uint8_t ep_addr, uint8_t ep_type, uint1
 200:USB_DEVICE/Target/usbd_conf.c **** {
 201:USB_DEVICE/Target/usbd_conf.c ****   HAL_StatusTypeDef hal_status = HAL_OK;
ARM GAS  C:\Temp\ccW5xNH5.s 			page 5


 202:USB_DEVICE/Target/usbd_conf.c ****   USBD_StatusTypeDef usb_status = USBD_OK;
 203:USB_DEVICE/Target/usbd_conf.c ****   hal_status = HAL_PCD_EP_Open(pdev->pData, ep_addr, ep_mps, ep_type);
 204:USB_DEVICE/Target/usbd_conf.c ****   usb_status =  USBD_Get_USB_Status(hal_status);
 205:USB_DEVICE/Target/usbd_conf.c ****   return usb_status;
 206:USB_DEVICE/Target/usbd_conf.c **** }
 207:USB_DEVICE/Target/usbd_conf.c **** 
 208:USB_DEVICE/Target/usbd_conf.c **** USBD_StatusTypeDef USBD_LL_CloseEP(USBD_HandleTypeDef *pdev, uint8_t ep_addr)
 209:USB_DEVICE/Target/usbd_conf.c **** {
 210:USB_DEVICE/Target/usbd_conf.c ****   HAL_StatusTypeDef hal_status = HAL_OK;
 211:USB_DEVICE/Target/usbd_conf.c ****   USBD_StatusTypeDef usb_status = USBD_OK;
 212:USB_DEVICE/Target/usbd_conf.c ****   hal_status = HAL_PCD_EP_Close(pdev->pData, ep_addr);
 213:USB_DEVICE/Target/usbd_conf.c ****   usb_status =  USBD_Get_USB_Status(hal_status);
 214:USB_DEVICE/Target/usbd_conf.c ****   return usb_status;
 215:USB_DEVICE/Target/usbd_conf.c **** }
 216:USB_DEVICE/Target/usbd_conf.c **** 
 217:USB_DEVICE/Target/usbd_conf.c **** USBD_StatusTypeDef USBD_LL_FlushEP(USBD_HandleTypeDef *pdev, uint8_t ep_addr)
 218:USB_DEVICE/Target/usbd_conf.c **** {
 219:USB_DEVICE/Target/usbd_conf.c ****   HAL_StatusTypeDef hal_status = HAL_OK;
 220:USB_DEVICE/Target/usbd_conf.c ****   USBD_StatusTypeDef usb_status = USBD_OK;
 221:USB_DEVICE/Target/usbd_conf.c ****   hal_status = HAL_PCD_EP_Flush(pdev->pData, ep_addr);
 222:USB_DEVICE/Target/usbd_conf.c ****   usb_status =  USBD_Get_USB_Status(hal_status);
 223:USB_DEVICE/Target/usbd_conf.c ****   return usb_status;
 224:USB_DEVICE/Target/usbd_conf.c **** }
 225:USB_DEVICE/Target/usbd_conf.c **** 
 226:USB_DEVICE/Target/usbd_conf.c **** USBD_StatusTypeDef USBD_LL_StallEP(USBD_HandleTypeDef *pdev, uint8_t ep_addr)
 227:USB_DEVICE/Target/usbd_conf.c **** {
 228:USB_DEVICE/Target/usbd_conf.c ****   HAL_StatusTypeDef hal_status = HAL_OK;
 229:USB_DEVICE/Target/usbd_conf.c ****   USBD_StatusTypeDef usb_status = USBD_OK;
 230:USB_DEVICE/Target/usbd_conf.c ****   hal_status = HAL_PCD_EP_SetStall(pdev->pData, ep_addr);
 231:USB_DEVICE/Target/usbd_conf.c ****   usb_status =  USBD_Get_USB_Status(hal_status);
 232:USB_DEVICE/Target/usbd_conf.c ****   return usb_status;
 233:USB_DEVICE/Target/usbd_conf.c **** }
 234:USB_DEVICE/Target/usbd_conf.c **** 
 235:USB_DEVICE/Target/usbd_conf.c **** USBD_StatusTypeDef USBD_LL_ClearStallEP(USBD_HandleTypeDef *pdev, uint8_t ep_addr)
 236:USB_DEVICE/Target/usbd_conf.c **** {
 237:USB_DEVICE/Target/usbd_conf.c ****   HAL_StatusTypeDef hal_status = HAL_OK;
 238:USB_DEVICE/Target/usbd_conf.c ****   USBD_StatusTypeDef usb_status = USBD_OK;
 239:USB_DEVICE/Target/usbd_conf.c ****   hal_status = HAL_PCD_EP_ClrStall(pdev->pData, ep_addr);
 240:USB_DEVICE/Target/usbd_conf.c ****   usb_status =  USBD_Get_USB_Status(hal_status);
 241:USB_DEVICE/Target/usbd_conf.c ****   return usb_status;
 242:USB_DEVICE/Target/usbd_conf.c **** }
 243:USB_DEVICE/Target/usbd_conf.c **** 
 244:USB_DEVICE/Target/usbd_conf.c **** uint8_t USBD_LL_IsStallEP(USBD_HandleTypeDef *pdev, uint8_t ep_addr)
 245:USB_DEVICE/Target/usbd_conf.c **** {
 246:USB_DEVICE/Target/usbd_conf.c ****   PCD_HandleTypeDef *hpcd = (PCD_HandleTypeDef*) pdev->pData;
 247:USB_DEVICE/Target/usbd_conf.c ****   if((ep_addr & 0x80) == 0x80)
 248:USB_DEVICE/Target/usbd_conf.c ****   {
 249:USB_DEVICE/Target/usbd_conf.c ****     return hpcd->IN_ep[ep_addr & 0x7F].is_stall;
 250:USB_DEVICE/Target/usbd_conf.c ****   }
 251:USB_DEVICE/Target/usbd_conf.c ****   else
 252:USB_DEVICE/Target/usbd_conf.c ****   {
 253:USB_DEVICE/Target/usbd_conf.c ****     return hpcd->OUT_ep[ep_addr & 0x7F].is_stall;
 254:USB_DEVICE/Target/usbd_conf.c ****   }
 255:USB_DEVICE/Target/usbd_conf.c **** }
 256:USB_DEVICE/Target/usbd_conf.c **** 
 257:USB_DEVICE/Target/usbd_conf.c **** USBD_StatusTypeDef USBD_LL_SetUSBAddress(USBD_HandleTypeDef *pdev, uint8_t dev_addr)
 258:USB_DEVICE/Target/usbd_conf.c **** {
ARM GAS  C:\Temp\ccW5xNH5.s 			page 6


 259:USB_DEVICE/Target/usbd_conf.c ****   HAL_StatusTypeDef hal_status = HAL_OK;
 260:USB_DEVICE/Target/usbd_conf.c ****   USBD_StatusTypeDef usb_status = USBD_OK;
 261:USB_DEVICE/Target/usbd_conf.c ****   hal_status = HAL_PCD_SetAddress(pdev->pData, dev_addr);
 262:USB_DEVICE/Target/usbd_conf.c ****   usb_status =  USBD_Get_USB_Status(hal_status);
 263:USB_DEVICE/Target/usbd_conf.c ****   return usb_status;
 264:USB_DEVICE/Target/usbd_conf.c **** }
 265:USB_DEVICE/Target/usbd_conf.c **** 
 266:USB_DEVICE/Target/usbd_conf.c **** USBD_StatusTypeDef USBD_LL_Transmit(USBD_HandleTypeDef *pdev, uint8_t ep_addr, uint8_t *pbuf, uint1
 267:USB_DEVICE/Target/usbd_conf.c **** {
 268:USB_DEVICE/Target/usbd_conf.c ****   HAL_StatusTypeDef hal_status = HAL_OK;
 269:USB_DEVICE/Target/usbd_conf.c ****   USBD_StatusTypeDef usb_status = USBD_OK;
 270:USB_DEVICE/Target/usbd_conf.c ****   hal_status = HAL_PCD_EP_Transmit(pdev->pData, ep_addr, pbuf, size);
 271:USB_DEVICE/Target/usbd_conf.c ****   usb_status =  USBD_Get_USB_Status(hal_status);
 272:USB_DEVICE/Target/usbd_conf.c ****   return usb_status;
 273:USB_DEVICE/Target/usbd_conf.c **** }
 274:USB_DEVICE/Target/usbd_conf.c **** 
 275:USB_DEVICE/Target/usbd_conf.c **** USBD_StatusTypeDef USBD_LL_PrepareReceive(USBD_HandleTypeDef *pdev, uint8_t ep_addr, uint8_t *pbuf,
 276:USB_DEVICE/Target/usbd_conf.c **** {
 277:USB_DEVICE/Target/usbd_conf.c ****   HAL_StatusTypeDef hal_status = HAL_OK;
 278:USB_DEVICE/Target/usbd_conf.c ****   USBD_StatusTypeDef usb_status = USBD_OK;
 279:USB_DEVICE/Target/usbd_conf.c ****   hal_status = HAL_PCD_EP_Receive(pdev->pData, ep_addr, pbuf, size);
 280:USB_DEVICE/Target/usbd_conf.c ****   usb_status =  USBD_Get_USB_Status(hal_status);
 281:USB_DEVICE/Target/usbd_conf.c ****   return usb_status;
 282:USB_DEVICE/Target/usbd_conf.c **** }
 283:USB_DEVICE/Target/usbd_conf.c **** 
 284:USB_DEVICE/Target/usbd_conf.c **** uint32_t USBD_LL_GetRxDataSize(USBD_HandleTypeDef *pdev, uint8_t ep_addr)
 285:USB_DEVICE/Target/usbd_conf.c **** {
 286:USB_DEVICE/Target/usbd_conf.c ****   return HAL_PCD_EP_GetRxCount((PCD_HandleTypeDef*) pdev->pData, ep_addr);
 287:USB_DEVICE/Target/usbd_conf.c **** }
 288:USB_DEVICE/Target/usbd_conf.c **** 
 289:USB_DEVICE/Target/usbd_conf.c **** void USBD_LL_Delay(uint32_t Delay)
 290:USB_DEVICE/Target/usbd_conf.c **** {
 291:USB_DEVICE/Target/usbd_conf.c ****   HAL_Delay(Delay);
 292:USB_DEVICE/Target/usbd_conf.c **** }
 293:USB_DEVICE/Target/usbd_conf.c **** 
 294:USB_DEVICE/Target/usbd_conf.c **** void *USBD_static_malloc(uint32_t size)
 295:USB_DEVICE/Target/usbd_conf.c **** {
 296:USB_DEVICE/Target/usbd_conf.c ****   static uint32_t mem[(sizeof(USBD_HID_HandleTypeDef)/4)+1];
 297:USB_DEVICE/Target/usbd_conf.c ****   return mem;
 298:USB_DEVICE/Target/usbd_conf.c **** }
 299:USB_DEVICE/Target/usbd_conf.c **** 
 300:USB_DEVICE/Target/usbd_conf.c **** void USBD_static_free(void *p)
 301:USB_DEVICE/Target/usbd_conf.c **** {
 302:USB_DEVICE/Target/usbd_conf.c **** }
 303:USB_DEVICE/Target/usbd_conf.c **** 
 304:USB_DEVICE/Target/usbd_conf.c **** void HAL_PCDEx_SetConnectionState(PCD_HandleTypeDef *hpcd, uint8_t state)
 305:USB_DEVICE/Target/usbd_conf.c **** {
 306:USB_DEVICE/Target/usbd_conf.c **** }
 307:USB_DEVICE/Target/usbd_conf.c **** 
 308:USB_DEVICE/Target/usbd_conf.c **** USBD_StatusTypeDef USBD_Get_USB_Status(HAL_StatusTypeDef hal_status)
 309:USB_DEVICE/Target/usbd_conf.c **** {
  29              		.loc 1 309 1 view -0
  30              		.cfi_startproc
  31              		@ args = 0, pretend = 0, frame = 0
  32              		@ frame_needed = 0, uses_anonymous_args = 0
  33              		@ link register save eliminated.
 310:USB_DEVICE/Target/usbd_conf.c ****   USBD_StatusTypeDef usb_status = USBD_OK;
ARM GAS  C:\Temp\ccW5xNH5.s 			page 7


  34              		.loc 1 310 3 view .LVU1
 311:USB_DEVICE/Target/usbd_conf.c ****   switch (hal_status)
  35              		.loc 1 311 3 view .LVU2
  36 0000 0228     		cmp	r0, #2
  37 0002 04D0     		beq	.L3
  38 0004 05D8     		bhi	.L4
  39 0006 08B1     		cbz	r0, .L6
 312:USB_DEVICE/Target/usbd_conf.c ****   {
 313:USB_DEVICE/Target/usbd_conf.c ****     case HAL_OK : usb_status = USBD_OK; break;
 314:USB_DEVICE/Target/usbd_conf.c ****     case HAL_ERROR : usb_status = USBD_FAIL; break;
  40              		.loc 1 314 33 is_stmt 0 view .LVU3
  41 0008 0220     		movs	r0, #2
  42              	.LVL1:
 315:USB_DEVICE/Target/usbd_conf.c ****     case HAL_BUSY : usb_status = USBD_BUSY; break;
 316:USB_DEVICE/Target/usbd_conf.c ****     case HAL_TIMEOUT : usb_status = USBD_FAIL; break;
 317:USB_DEVICE/Target/usbd_conf.c ****     default : usb_status = USBD_FAIL; break;
 318:USB_DEVICE/Target/usbd_conf.c ****   }
 319:USB_DEVICE/Target/usbd_conf.c ****   return usb_status;
  43              		.loc 1 319 3 is_stmt 1 view .LVU4
 320:USB_DEVICE/Target/usbd_conf.c **** }...
  44              		.loc 1 320 1 is_stmt 0 view .LVU5
  45 000a 7047     		bx	lr
  46              	.LVL2:
  47              	.L6:
  48              		.loc 1 320 1 view .LVU6
  49 000c 7047     		bx	lr
  50              	.L3:
 315:USB_DEVICE/Target/usbd_conf.c ****     case HAL_BUSY : usb_status = USBD_BUSY; break;
  51              		.loc 1 315 32 view .LVU7
  52 000e 0120     		movs	r0, #1
  53              	.LVL3:
 315:USB_DEVICE/Target/usbd_conf.c ****     case HAL_BUSY : usb_status = USBD_BUSY; break;
  54              		.loc 1 315 32 view .LVU8
  55 0010 7047     		bx	lr
  56              	.LVL4:
  57              	.L4:
 316:USB_DEVICE/Target/usbd_conf.c ****     case HAL_TIMEOUT : usb_status = USBD_FAIL; break;
  58              		.loc 1 316 35 view .LVU9
  59 0012 0220     		movs	r0, #2
  60              	.LVL5:
 316:USB_DEVICE/Target/usbd_conf.c ****     case HAL_TIMEOUT : usb_status = USBD_FAIL; break;
  61              		.loc 1 316 35 view .LVU10
  62 0014 7047     		bx	lr
  63              		.cfi_endproc
  64              	.LFE164:
  66              		.section	.text.HAL_PCD_MspInit,"ax",%progbits
  67              		.align	1
  68              		.global	HAL_PCD_MspInit
  69              		.syntax unified
  70              		.thumb
  71              		.thumb_func
  73              	HAL_PCD_MspInit:
  74              	.LVL6:
  75              	.LFB133:
  29:USB_DEVICE/Target/usbd_conf.c **** {
  76              		.loc 1 29 1 is_stmt 1 view -0
  77              		.cfi_startproc
ARM GAS  C:\Temp\ccW5xNH5.s 			page 8


  78              		@ args = 0, pretend = 0, frame = 32
  79              		@ frame_needed = 0, uses_anonymous_args = 0
  29:USB_DEVICE/Target/usbd_conf.c **** {
  80              		.loc 1 29 1 is_stmt 0 view .LVU12
  81 0000 10B5     		push	{r4, lr}
  82              	.LCFI0:
  83              		.cfi_def_cfa_offset 8
  84              		.cfi_offset 4, -8
  85              		.cfi_offset 14, -4
  86 0002 88B0     		sub	sp, sp, #32
  87              	.LCFI1:
  88              		.cfi_def_cfa_offset 40
  30:USB_DEVICE/Target/usbd_conf.c ****   GPIO_InitTypeDef GPIO_InitStruct = {0};
  89              		.loc 1 30 3 is_stmt 1 view .LVU13
  30:USB_DEVICE/Target/usbd_conf.c ****   GPIO_InitTypeDef GPIO_InitStruct = {0};
  90              		.loc 1 30 20 is_stmt 0 view .LVU14
  91 0004 0023     		movs	r3, #0
  92 0006 0393     		str	r3, [sp, #12]
  93 0008 0493     		str	r3, [sp, #16]
  94 000a 0593     		str	r3, [sp, #20]
  95 000c 0693     		str	r3, [sp, #24]
  96 000e 0793     		str	r3, [sp, #28]
  31:USB_DEVICE/Target/usbd_conf.c ****   if(pcdHandle->Instance==USB)
  97              		.loc 1 31 3 is_stmt 1 view .LVU15
  31:USB_DEVICE/Target/usbd_conf.c ****   if(pcdHandle->Instance==USB)
  98              		.loc 1 31 15 is_stmt 0 view .LVU16
  99 0010 0268     		ldr	r2, [r0]
  31:USB_DEVICE/Target/usbd_conf.c ****   if(pcdHandle->Instance==USB)
 100              		.loc 1 31 5 view .LVU17
 101 0012 174B     		ldr	r3, .L11
 102 0014 9A42     		cmp	r2, r3
 103 0016 01D0     		beq	.L10
 104              	.LVL7:
 105              	.L7:
  52:USB_DEVICE/Target/usbd_conf.c **** }
 106              		.loc 1 52 1 view .LVU18
 107 0018 08B0     		add	sp, sp, #32
 108              	.LCFI2:
 109              		.cfi_remember_state
 110              		.cfi_def_cfa_offset 8
 111              		@ sp needed
 112 001a 10BD     		pop	{r4, pc}
 113              	.LVL8:
 114              	.L10:
 115              	.LCFI3:
 116              		.cfi_restore_state
  33:USB_DEVICE/Target/usbd_conf.c ****     __HAL_RCC_GPIOA_CLK_ENABLE();
 117              		.loc 1 33 5 is_stmt 1 view .LVU19
 118              	.LBB2:
  33:USB_DEVICE/Target/usbd_conf.c ****     __HAL_RCC_GPIOA_CLK_ENABLE();
 119              		.loc 1 33 5 view .LVU20
  33:USB_DEVICE/Target/usbd_conf.c ****     __HAL_RCC_GPIOA_CLK_ENABLE();
 120              		.loc 1 33 5 view .LVU21
 121 001c 154C     		ldr	r4, .L11+4
 122 001e 6369     		ldr	r3, [r4, #20]
 123 0020 43F40033 		orr	r3, r3, #131072
 124 0024 6361     		str	r3, [r4, #20]
ARM GAS  C:\Temp\ccW5xNH5.s 			page 9


  33:USB_DEVICE/Target/usbd_conf.c ****     __HAL_RCC_GPIOA_CLK_ENABLE();
 125              		.loc 1 33 5 view .LVU22
 126 0026 6369     		ldr	r3, [r4, #20]
 127 0028 03F40033 		and	r3, r3, #131072
 128 002c 0193     		str	r3, [sp, #4]
  33:USB_DEVICE/Target/usbd_conf.c ****     __HAL_RCC_GPIOA_CLK_ENABLE();
 129              		.loc 1 33 5 view .LVU23
 130 002e 019B     		ldr	r3, [sp, #4]
 131              	.LBE2:
  33:USB_DEVICE/Target/usbd_conf.c ****     __HAL_RCC_GPIOA_CLK_ENABLE();
 132              		.loc 1 33 5 view .LVU24
  38:USB_DEVICE/Target/usbd_conf.c ****     GPIO_InitStruct.Pin = GPIO_PIN_11|GPIO_PIN_12;
 133              		.loc 1 38 5 view .LVU25
  38:USB_DEVICE/Target/usbd_conf.c ****     GPIO_InitStruct.Pin = GPIO_PIN_11|GPIO_PIN_12;
 134              		.loc 1 38 25 is_stmt 0 view .LVU26
 135 0030 4FF4C053 		mov	r3, #6144
 136 0034 0393     		str	r3, [sp, #12]
  39:USB_DEVICE/Target/usbd_conf.c ****     GPIO_InitStruct.Mode = GPIO_MODE_AF_PP;
 137              		.loc 1 39 5 is_stmt 1 view .LVU27
  39:USB_DEVICE/Target/usbd_conf.c ****     GPIO_InitStruct.Mode = GPIO_MODE_AF_PP;
 138              		.loc 1 39 26 is_stmt 0 view .LVU28
 139 0036 0223     		movs	r3, #2
 140 0038 0493     		str	r3, [sp, #16]
  40:USB_DEVICE/Target/usbd_conf.c ****     GPIO_InitStruct.Pull = GPIO_NOPULL;
 141              		.loc 1 40 5 is_stmt 1 view .LVU29
  41:USB_DEVICE/Target/usbd_conf.c ****     GPIO_InitStruct.Speed = GPIO_SPEED_FREQ_HIGH;
 142              		.loc 1 41 5 view .LVU30
  41:USB_DEVICE/Target/usbd_conf.c ****     GPIO_InitStruct.Speed = GPIO_SPEED_FREQ_HIGH;
 143              		.loc 1 41 27 is_stmt 0 view .LVU31
 144 003a 0323     		movs	r3, #3
 145 003c 0693     		str	r3, [sp, #24]
  42:USB_DEVICE/Target/usbd_conf.c ****     GPIO_InitStruct.Alternate = GPIO_AF14_USB;
 146              		.loc 1 42 5 is_stmt 1 view .LVU32
  42:USB_DEVICE/Target/usbd_conf.c ****     GPIO_InitStruct.Alternate = GPIO_AF14_USB;
 147              		.loc 1 42 31 is_stmt 0 view .LVU33
 148 003e 0E23     		movs	r3, #14
 149 0040 0793     		str	r3, [sp, #28]
  43:USB_DEVICE/Target/usbd_conf.c ****     HAL_GPIO_Init(GPIOA, &GPIO_InitStruct);
 150              		.loc 1 43 5 is_stmt 1 view .LVU34
 151 0042 03A9     		add	r1, sp, #12
 152 0044 4FF09040 		mov	r0, #1207959552
 153              	.LVL9:
  43:USB_DEVICE/Target/usbd_conf.c ****     HAL_GPIO_Init(GPIOA, &GPIO_InitStruct);
 154              		.loc 1 43 5 is_stmt 0 view .LVU35
 155 0048 FFF7FEFF 		bl	HAL_GPIO_Init
 156              	.LVL10:
  46:USB_DEVICE/Target/usbd_conf.c ****     __HAL_RCC_USB_CLK_ENABLE();
 157              		.loc 1 46 5 is_stmt 1 view .LVU36
 158              	.LBB3:
  46:USB_DEVICE/Target/usbd_conf.c ****     __HAL_RCC_USB_CLK_ENABLE();
 159              		.loc 1 46 5 view .LVU37
  46:USB_DEVICE/Target/usbd_conf.c ****     __HAL_RCC_USB_CLK_ENABLE();
 160              		.loc 1 46 5 view .LVU38
 161 004c E369     		ldr	r3, [r4, #28]
 162 004e 43F40003 		orr	r3, r3, #8388608
 163 0052 E361     		str	r3, [r4, #28]
  46:USB_DEVICE/Target/usbd_conf.c ****     __HAL_RCC_USB_CLK_ENABLE();
ARM GAS  C:\Temp\ccW5xNH5.s 			page 10


 164              		.loc 1 46 5 view .LVU39
 165 0054 E369     		ldr	r3, [r4, #28]
 166 0056 03F40003 		and	r3, r3, #8388608
 167 005a 0293     		str	r3, [sp, #8]
  46:USB_DEVICE/Target/usbd_conf.c ****     __HAL_RCC_USB_CLK_ENABLE();
 168              		.loc 1 46 5 view .LVU40
 169 005c 029B     		ldr	r3, [sp, #8]
 170              	.LBE3:
  46:USB_DEVICE/Target/usbd_conf.c ****     __HAL_RCC_USB_CLK_ENABLE();
 171              		.loc 1 46 5 view .LVU41
  49:USB_DEVICE/Target/usbd_conf.c ****     HAL_NVIC_SetPriority(USB_LP_CAN_RX0_IRQn, 0, 0);
 172              		.loc 1 49 5 view .LVU42
 173 005e 0022     		movs	r2, #0
 174 0060 1146     		mov	r1, r2
 175 0062 1420     		movs	r0, #20
 176 0064 FFF7FEFF 		bl	HAL_NVIC_SetPriority
 177              	.LVL11:
  50:USB_DEVICE/Target/usbd_conf.c ****     HAL_NVIC_EnableIRQ(USB_LP_CAN_RX0_IRQn);
 178              		.loc 1 50 5 view .LVU43
 179 0068 1420     		movs	r0, #20
 180 006a FFF7FEFF 		bl	HAL_NVIC_EnableIRQ
 181              	.LVL12:
  52:USB_DEVICE/Target/usbd_conf.c **** }
 182              		.loc 1 52 1 is_stmt 0 view .LVU44
 183 006e D3E7     		b	.L7
 184              	.L12:
 185              		.align	2
 186              	.L11:
 187 0070 005C0040 		.word	1073765376
 188 0074 00100240 		.word	1073876992
 189              		.cfi_endproc
 190              	.LFE133:
 192              		.section	.text.HAL_PCD_MspDeInit,"ax",%progbits
 193              		.align	1
 194              		.global	HAL_PCD_MspDeInit
 195              		.syntax unified
 196              		.thumb
 197              		.thumb_func
 199              	HAL_PCD_MspDeInit:
 200              	.LVL13:
 201              	.LFB134:
  55:USB_DEVICE/Target/usbd_conf.c **** {
 202              		.loc 1 55 1 is_stmt 1 view -0
 203              		.cfi_startproc
 204              		@ args = 0, pretend = 0, frame = 0
 205              		@ frame_needed = 0, uses_anonymous_args = 0
  55:USB_DEVICE/Target/usbd_conf.c **** {
 206              		.loc 1 55 1 is_stmt 0 view .LVU46
 207 0000 08B5     		push	{r3, lr}
 208              	.LCFI4:
 209              		.cfi_def_cfa_offset 8
 210              		.cfi_offset 3, -8
 211              		.cfi_offset 14, -4
  56:USB_DEVICE/Target/usbd_conf.c ****   if(pcdHandle->Instance==USB)
 212              		.loc 1 56 3 is_stmt 1 view .LVU47
  56:USB_DEVICE/Target/usbd_conf.c ****   if(pcdHandle->Instance==USB)
 213              		.loc 1 56 15 is_stmt 0 view .LVU48
ARM GAS  C:\Temp\ccW5xNH5.s 			page 11


 214 0002 0268     		ldr	r2, [r0]
  56:USB_DEVICE/Target/usbd_conf.c ****   if(pcdHandle->Instance==USB)
 215              		.loc 1 56 5 view .LVU49
 216 0004 094B     		ldr	r3, .L17
 217 0006 9A42     		cmp	r2, r3
 218 0008 00D0     		beq	.L16
 219              	.LVL14:
 220              	.L13:
  62:USB_DEVICE/Target/usbd_conf.c **** }
 221              		.loc 1 62 1 view .LVU50
 222 000a 08BD     		pop	{r3, pc}
 223              	.LVL15:
 224              	.L16:
  58:USB_DEVICE/Target/usbd_conf.c ****     __HAL_RCC_USB_CLK_DISABLE();
 225              		.loc 1 58 5 is_stmt 1 view .LVU51
 226 000c 084A     		ldr	r2, .L17+4
 227 000e D369     		ldr	r3, [r2, #28]
 228 0010 23F40003 		bic	r3, r3, #8388608
 229 0014 D361     		str	r3, [r2, #28]
  59:USB_DEVICE/Target/usbd_conf.c ****     HAL_GPIO_DeInit(GPIOA, GPIO_PIN_11|GPIO_PIN_12);
 230              		.loc 1 59 5 view .LVU52
 231 0016 4FF4C051 		mov	r1, #6144
 232 001a 4FF09040 		mov	r0, #1207959552
 233              	.LVL16:
  59:USB_DEVICE/Target/usbd_conf.c ****     HAL_GPIO_DeInit(GPIOA, GPIO_PIN_11|GPIO_PIN_12);
 234              		.loc 1 59 5 is_stmt 0 view .LVU53
 235 001e FFF7FEFF 		bl	HAL_GPIO_DeInit
 236              	.LVL17:
  60:USB_DEVICE/Target/usbd_conf.c ****     HAL_NVIC_DisableIRQ(USB_LP_CAN_RX0_IRQn);
 237              		.loc 1 60 5 is_stmt 1 view .LVU54
 238 0022 1420     		movs	r0, #20
 239 0024 FFF7FEFF 		bl	HAL_NVIC_DisableIRQ
 240              	.LVL18:
  62:USB_DEVICE/Target/usbd_conf.c **** }
 241              		.loc 1 62 1 is_stmt 0 view .LVU55
 242 0028 EFE7     		b	.L13
 243              	.L18:
 244 002a 00BF     		.align	2
 245              	.L17:
 246 002c 005C0040 		.word	1073765376
 247 0030 00100240 		.word	1073876992
 248              		.cfi_endproc
 249              	.LFE134:
 251              		.section	.text.HAL_PCD_SetupStageCallback,"ax",%progbits
 252              		.align	1
 253              		.global	HAL_PCD_SetupStageCallback
 254              		.syntax unified
 255              		.thumb
 256              		.thumb_func
 258              	HAL_PCD_SetupStageCallback:
 259              	.LVL19:
 260              	.LFB135:
  65:USB_DEVICE/Target/usbd_conf.c **** {
 261              		.loc 1 65 1 is_stmt 1 view -0
 262              		.cfi_startproc
 263              		@ args = 0, pretend = 0, frame = 0
 264              		@ frame_needed = 0, uses_anonymous_args = 0
ARM GAS  C:\Temp\ccW5xNH5.s 			page 12


  65:USB_DEVICE/Target/usbd_conf.c **** {
 265              		.loc 1 65 1 is_stmt 0 view .LVU57
 266 0000 08B5     		push	{r3, lr}
 267              	.LCFI5:
 268              		.cfi_def_cfa_offset 8
 269              		.cfi_offset 3, -8
 270              		.cfi_offset 14, -4
  66:USB_DEVICE/Target/usbd_conf.c ****   USBD_LL_SetupStage((USBD_HandleTypeDef*)hpcd->pData, (uint8_t *)hpcd->Setup);
 271              		.loc 1 66 3 is_stmt 1 view .LVU58
 272 0002 00F52671 		add	r1, r0, #664
 273 0006 D0F8D002 		ldr	r0, [r0, #720]
 274              	.LVL20:
  66:USB_DEVICE/Target/usbd_conf.c ****   USBD_LL_SetupStage((USBD_HandleTypeDef*)hpcd->pData, (uint8_t *)hpcd->Setup);
 275              		.loc 1 66 3 is_stmt 0 view .LVU59
 276 000a FFF7FEFF 		bl	USBD_LL_SetupStage
 277              	.LVL21:
  67:USB_DEVICE/Target/usbd_conf.c **** }
 278              		.loc 1 67 1 view .LVU60
 279 000e 08BD     		pop	{r3, pc}
 280              		.cfi_endproc
 281              	.LFE135:
 283              		.section	.text.HAL_PCD_DataOutStageCallback,"ax",%progbits
 284              		.align	1
 285              		.global	HAL_PCD_DataOutStageCallback
 286              		.syntax unified
 287              		.thumb
 288              		.thumb_func
 290              	HAL_PCD_DataOutStageCallback:
 291              	.LVL22:
 292              	.LFB136:
  70:USB_DEVICE/Target/usbd_conf.c **** {
 293              		.loc 1 70 1 is_stmt 1 view -0
 294              		.cfi_startproc
 295              		@ args = 0, pretend = 0, frame = 0
 296              		@ frame_needed = 0, uses_anonymous_args = 0
  70:USB_DEVICE/Target/usbd_conf.c **** {
 297              		.loc 1 70 1 is_stmt 0 view .LVU62
 298 0000 08B5     		push	{r3, lr}
 299              	.LCFI6:
 300              		.cfi_def_cfa_offset 8
 301              		.cfi_offset 3, -8
 302              		.cfi_offset 14, -4
  71:USB_DEVICE/Target/usbd_conf.c ****   USBD_LL_DataOutStage((USBD_HandleTypeDef*)hpcd->pData, epnum, hpcd->OUT_ep[epnum].xfer_buff);
 303              		.loc 1 71 3 is_stmt 1 view .LVU63
 304 0002 01EB8103 		add	r3, r1, r1, lsl #2
 305 0006 00EBC303 		add	r3, r0, r3, lsl #3
 306 000a D3F86421 		ldr	r2, [r3, #356]
 307 000e D0F8D002 		ldr	r0, [r0, #720]
 308              	.LVL23:
  71:USB_DEVICE/Target/usbd_conf.c ****   USBD_LL_DataOutStage((USBD_HandleTypeDef*)hpcd->pData, epnum, hpcd->OUT_ep[epnum].xfer_buff);
 309              		.loc 1 71 3 is_stmt 0 view .LVU64
 310 0012 FFF7FEFF 		bl	USBD_LL_DataOutStage
 311              	.LVL24:
  72:USB_DEVICE/Target/usbd_conf.c **** }
 312              		.loc 1 72 1 view .LVU65
 313 0016 08BD     		pop	{r3, pc}
 314              		.cfi_endproc
ARM GAS  C:\Temp\ccW5xNH5.s 			page 13


 315              	.LFE136:
 317              		.section	.text.HAL_PCD_DataInStageCallback,"ax",%progbits
 318              		.align	1
 319              		.global	HAL_PCD_DataInStageCallback
 320              		.syntax unified
 321              		.thumb
 322              		.thumb_func
 324              	HAL_PCD_DataInStageCallback:
 325              	.LVL25:
 326              	.LFB137:
  75:USB_DEVICE/Target/usbd_conf.c **** {
 327              		.loc 1 75 1 is_stmt 1 view -0
 328              		.cfi_startproc
 329              		@ args = 0, pretend = 0, frame = 0
 330              		@ frame_needed = 0, uses_anonymous_args = 0
  75:USB_DEVICE/Target/usbd_conf.c **** {
 331              		.loc 1 75 1 is_stmt 0 view .LVU67
 332 0000 08B5     		push	{r3, lr}
 333              	.LCFI7:
 334              		.cfi_def_cfa_offset 8
 335              		.cfi_offset 3, -8
 336              		.cfi_offset 14, -4
  76:USB_DEVICE/Target/usbd_conf.c ****   USBD_LL_DataInStage((USBD_HandleTypeDef*)hpcd->pData, epnum, hpcd->IN_ep[epnum].xfer_buff);
 337              		.loc 1 76 3 is_stmt 1 view .LVU68
 338 0002 01EB8103 		add	r3, r1, r1, lsl #2
 339 0006 00EBC303 		add	r3, r0, r3, lsl #3
 340 000a 5A6A     		ldr	r2, [r3, #36]
 341 000c D0F8D002 		ldr	r0, [r0, #720]
 342              	.LVL26:
  76:USB_DEVICE/Target/usbd_conf.c ****   USBD_LL_DataInStage((USBD_HandleTypeDef*)hpcd->pData, epnum, hpcd->IN_ep[epnum].xfer_buff);
 343              		.loc 1 76 3 is_stmt 0 view .LVU69
 344 0010 FFF7FEFF 		bl	USBD_LL_DataInStage
 345              	.LVL27:
  77:USB_DEVICE/Target/usbd_conf.c **** }
 346              		.loc 1 77 1 view .LVU70
 347 0014 08BD     		pop	{r3, pc}
 348              		.cfi_endproc
 349              	.LFE137:
 351              		.section	.text.HAL_PCD_SOFCallback,"ax",%progbits
 352              		.align	1
 353              		.global	HAL_PCD_SOFCallback
 354              		.syntax unified
 355              		.thumb
 356              		.thumb_func
 358              	HAL_PCD_SOFCallback:
 359              	.LVL28:
 360              	.LFB138:
  80:USB_DEVICE/Target/usbd_conf.c **** {
 361              		.loc 1 80 1 is_stmt 1 view -0
 362              		.cfi_startproc
 363              		@ args = 0, pretend = 0, frame = 0
 364              		@ frame_needed = 0, uses_anonymous_args = 0
  80:USB_DEVICE/Target/usbd_conf.c **** {
 365              		.loc 1 80 1 is_stmt 0 view .LVU72
 366 0000 08B5     		push	{r3, lr}
 367              	.LCFI8:
 368              		.cfi_def_cfa_offset 8
ARM GAS  C:\Temp\ccW5xNH5.s 			page 14


 369              		.cfi_offset 3, -8
 370              		.cfi_offset 14, -4
  81:USB_DEVICE/Target/usbd_conf.c ****   USBD_LL_SOF((USBD_HandleTypeDef*)hpcd->pData);
 371              		.loc 1 81 3 is_stmt 1 view .LVU73
 372 0002 D0F8D002 		ldr	r0, [r0, #720]
 373              	.LVL29:
  81:USB_DEVICE/Target/usbd_conf.c ****   USBD_LL_SOF((USBD_HandleTypeDef*)hpcd->pData);
 374              		.loc 1 81 3 is_stmt 0 view .LVU74
 375 0006 FFF7FEFF 		bl	USBD_LL_SOF
 376              	.LVL30:
  82:USB_DEVICE/Target/usbd_conf.c **** }
 377              		.loc 1 82 1 view .LVU75
 378 000a 08BD     		pop	{r3, pc}
 379              		.cfi_endproc
 380              	.LFE138:
 382              		.section	.text.HAL_PCD_ResetCallback,"ax",%progbits
 383              		.align	1
 384              		.global	HAL_PCD_ResetCallback
 385              		.syntax unified
 386              		.thumb
 387              		.thumb_func
 389              	HAL_PCD_ResetCallback:
 390              	.LVL31:
 391              	.LFB139:
  85:USB_DEVICE/Target/usbd_conf.c **** {
 392              		.loc 1 85 1 is_stmt 1 view -0
 393              		.cfi_startproc
 394              		@ args = 0, pretend = 0, frame = 0
 395              		@ frame_needed = 0, uses_anonymous_args = 0
  85:USB_DEVICE/Target/usbd_conf.c **** {
 396              		.loc 1 85 1 is_stmt 0 view .LVU77
 397 0000 10B5     		push	{r4, lr}
 398              	.LCFI9:
 399              		.cfi_def_cfa_offset 8
 400              		.cfi_offset 4, -8
 401              		.cfi_offset 14, -4
 402 0002 0446     		mov	r4, r0
  86:USB_DEVICE/Target/usbd_conf.c ****   USBD_SpeedTypeDef speed = USBD_SPEED_FULL;
 403              		.loc 1 86 3 is_stmt 1 view .LVU78
 404              	.LVL32:
  87:USB_DEVICE/Target/usbd_conf.c ****   if ( hpcd->Init.speed != PCD_SPEED_FULL)
 405              		.loc 1 87 3 view .LVU79
  87:USB_DEVICE/Target/usbd_conf.c ****   if ( hpcd->Init.speed != PCD_SPEED_FULL)
 406              		.loc 1 87 18 is_stmt 0 view .LVU80
 407 0004 4379     		ldrb	r3, [r0, #5]	@ zero_extendqisi2
  87:USB_DEVICE/Target/usbd_conf.c ****   if ( hpcd->Init.speed != PCD_SPEED_FULL)
 408              		.loc 1 87 6 view .LVU81
 409 0006 022B     		cmp	r3, #2
 410 0008 09D1     		bne	.L30
 411              	.LVL33:
 412              	.L28:
  91:USB_DEVICE/Target/usbd_conf.c ****   USBD_LL_SetSpeed((USBD_HandleTypeDef*)hpcd->pData, speed);
 413              		.loc 1 91 3 is_stmt 1 view .LVU82
 414 000a 0121     		movs	r1, #1
 415 000c D4F8D002 		ldr	r0, [r4, #720]
 416 0010 FFF7FEFF 		bl	USBD_LL_SetSpeed
 417              	.LVL34:
ARM GAS  C:\Temp\ccW5xNH5.s 			page 15


  92:USB_DEVICE/Target/usbd_conf.c ****   USBD_LL_Reset((USBD_HandleTypeDef*)hpcd->pData);
 418              		.loc 1 92 3 view .LVU83
 419 0014 D4F8D002 		ldr	r0, [r4, #720]
 420 0018 FFF7FEFF 		bl	USBD_LL_Reset
 421              	.LVL35:
  93:USB_DEVICE/Target/usbd_conf.c **** }
 422              		.loc 1 93 1 is_stmt 0 view .LVU84
 423 001c 10BD     		pop	{r4, pc}
 424              	.LVL36:
 425              	.L30:
  89:USB_DEVICE/Target/usbd_conf.c ****     Error_Handler();
 426              		.loc 1 89 5 is_stmt 1 view .LVU85
 427 001e FFF7FEFF 		bl	Error_Handler
 428              	.LVL37:
  89:USB_DEVICE/Target/usbd_conf.c ****     Error_Handler();
 429              		.loc 1 89 5 is_stmt 0 view .LVU86
 430 0022 F2E7     		b	.L28
 431              		.cfi_endproc
 432              	.LFE139:
 434              		.section	.text.HAL_PCD_SuspendCallback,"ax",%progbits
 435              		.align	1
 436              		.global	HAL_PCD_SuspendCallback
 437              		.syntax unified
 438              		.thumb
 439              		.thumb_func
 441              	HAL_PCD_SuspendCallback:
 442              	.LVL38:
 443              	.LFB140:
  96:USB_DEVICE/Target/usbd_conf.c **** {
 444              		.loc 1 96 1 is_stmt 1 view -0
 445              		.cfi_startproc
 446              		@ args = 0, pretend = 0, frame = 0
 447              		@ frame_needed = 0, uses_anonymous_args = 0
  96:USB_DEVICE/Target/usbd_conf.c **** {
 448              		.loc 1 96 1 is_stmt 0 view .LVU88
 449 0000 10B5     		push	{r4, lr}
 450              	.LCFI10:
 451              		.cfi_def_cfa_offset 8
 452              		.cfi_offset 4, -8
 453              		.cfi_offset 14, -4
 454 0002 0446     		mov	r4, r0
  97:USB_DEVICE/Target/usbd_conf.c ****   USBD_LL_Suspend((USBD_HandleTypeDef*)hpcd->pData);
 455              		.loc 1 97 3 is_stmt 1 view .LVU89
 456 0004 D0F8D002 		ldr	r0, [r0, #720]
 457              	.LVL39:
  97:USB_DEVICE/Target/usbd_conf.c ****   USBD_LL_Suspend((USBD_HandleTypeDef*)hpcd->pData);
 458              		.loc 1 97 3 is_stmt 0 view .LVU90
 459 0008 FFF7FEFF 		bl	USBD_LL_Suspend
 460              	.LVL40:
  98:USB_DEVICE/Target/usbd_conf.c ****   if (hpcd->Init.low_power_enable)
 461              		.loc 1 98 3 is_stmt 1 view .LVU91
  98:USB_DEVICE/Target/usbd_conf.c ****   if (hpcd->Init.low_power_enable)
 462              		.loc 1 98 17 is_stmt 0 view .LVU92
 463 000c 637A     		ldrb	r3, [r4, #9]	@ zero_extendqisi2
  98:USB_DEVICE/Target/usbd_conf.c ****   if (hpcd->Init.low_power_enable)
 464              		.loc 1 98 6 view .LVU93
 465 000e 23B1     		cbz	r3, .L31
ARM GAS  C:\Temp\ccW5xNH5.s 			page 16


 100:USB_DEVICE/Target/usbd_conf.c ****     SCB->SCR |= (uint32_t)((uint32_t)(SCB_SCR_SLEEPDEEP_Msk | SCB_SCR_SLEEPONEXIT_Msk));
 466              		.loc 1 100 5 is_stmt 1 view .LVU94
 100:USB_DEVICE/Target/usbd_conf.c ****     SCB->SCR |= (uint32_t)((uint32_t)(SCB_SCR_SLEEPDEEP_Msk | SCB_SCR_SLEEPONEXIT_Msk));
 467              		.loc 1 100 8 is_stmt 0 view .LVU95
 468 0010 024A     		ldr	r2, .L34
 469 0012 1369     		ldr	r3, [r2, #16]
 100:USB_DEVICE/Target/usbd_conf.c ****     SCB->SCR |= (uint32_t)((uint32_t)(SCB_SCR_SLEEPDEEP_Msk | SCB_SCR_SLEEPONEXIT_Msk));
 470              		.loc 1 100 14 view .LVU96
 471 0014 43F00603 		orr	r3, r3, #6
 472 0018 1361     		str	r3, [r2, #16]
 473              	.L31:
 102:USB_DEVICE/Target/usbd_conf.c **** }
 474              		.loc 1 102 1 view .LVU97
 475 001a 10BD     		pop	{r4, pc}
 476              	.LVL41:
 477              	.L35:
 102:USB_DEVICE/Target/usbd_conf.c **** }
 478              		.loc 1 102 1 view .LVU98
 479              		.align	2
 480              	.L34:
 481 001c 00ED00E0 		.word	-536810240
 482              		.cfi_endproc
 483              	.LFE140:
 485              		.section	.text.HAL_PCD_ResumeCallback,"ax",%progbits
 486              		.align	1
 487              		.global	HAL_PCD_ResumeCallback
 488              		.syntax unified
 489              		.thumb
 490              		.thumb_func
 492              	HAL_PCD_ResumeCallback:
 493              	.LVL42:
 494              	.LFB141:
 105:USB_DEVICE/Target/usbd_conf.c **** {
 495              		.loc 1 105 1 is_stmt 1 view -0
 496              		.cfi_startproc
 497              		@ args = 0, pretend = 0, frame = 0
 498              		@ frame_needed = 0, uses_anonymous_args = 0
 105:USB_DEVICE/Target/usbd_conf.c **** {
 499              		.loc 1 105 1 is_stmt 0 view .LVU100
 500 0000 08B5     		push	{r3, lr}
 501              	.LCFI11:
 502              		.cfi_def_cfa_offset 8
 503              		.cfi_offset 3, -8
 504              		.cfi_offset 14, -4
 106:USB_DEVICE/Target/usbd_conf.c ****   USBD_LL_Resume((USBD_HandleTypeDef*)hpcd->pData);
 505              		.loc 1 106 3 is_stmt 1 view .LVU101
 506 0002 D0F8D002 		ldr	r0, [r0, #720]
 507              	.LVL43:
 106:USB_DEVICE/Target/usbd_conf.c ****   USBD_LL_Resume((USBD_HandleTypeDef*)hpcd->pData);
 508              		.loc 1 106 3 is_stmt 0 view .LVU102
 509 0006 FFF7FEFF 		bl	USBD_LL_Resume
 510              	.LVL44:
 107:USB_DEVICE/Target/usbd_conf.c **** }
 511              		.loc 1 107 1 view .LVU103
 512 000a 08BD     		pop	{r3, pc}
 513              		.cfi_endproc
 514              	.LFE141:
ARM GAS  C:\Temp\ccW5xNH5.s 			page 17


 516              		.section	.text.HAL_PCD_ISOOUTIncompleteCallback,"ax",%progbits
 517              		.align	1
 518              		.global	HAL_PCD_ISOOUTIncompleteCallback
 519              		.syntax unified
 520              		.thumb
 521              		.thumb_func
 523              	HAL_PCD_ISOOUTIncompleteCallback:
 524              	.LVL45:
 525              	.LFB142:
 110:USB_DEVICE/Target/usbd_conf.c **** {
 526              		.loc 1 110 1 is_stmt 1 view -0
 527              		.cfi_startproc
 528              		@ args = 0, pretend = 0, frame = 0
 529              		@ frame_needed = 0, uses_anonymous_args = 0
 110:USB_DEVICE/Target/usbd_conf.c **** {
 530              		.loc 1 110 1 is_stmt 0 view .LVU105
 531 0000 08B5     		push	{r3, lr}
 532              	.LCFI12:
 533              		.cfi_def_cfa_offset 8
 534              		.cfi_offset 3, -8
 535              		.cfi_offset 14, -4
 111:USB_DEVICE/Target/usbd_conf.c ****   USBD_LL_IsoOUTIncomplete((USBD_HandleTypeDef*)hpcd->pData, epnum);
 536              		.loc 1 111 3 is_stmt 1 view .LVU106
 537 0002 D0F8D002 		ldr	r0, [r0, #720]
 538              	.LVL46:
 111:USB_DEVICE/Target/usbd_conf.c ****   USBD_LL_IsoOUTIncomplete((USBD_HandleTypeDef*)hpcd->pData, epnum);
 539              		.loc 1 111 3 is_stmt 0 view .LVU107
 540 0006 FFF7FEFF 		bl	USBD_LL_IsoOUTIncomplete
 541              	.LVL47:
 112:USB_DEVICE/Target/usbd_conf.c **** }
 542              		.loc 1 112 1 view .LVU108
 543 000a 08BD     		pop	{r3, pc}
 544              		.cfi_endproc
 545              	.LFE142:
 547              		.section	.text.HAL_PCD_ISOINIncompleteCallback,"ax",%progbits
 548              		.align	1
 549              		.global	HAL_PCD_ISOINIncompleteCallback
 550              		.syntax unified
 551              		.thumb
 552              		.thumb_func
 554              	HAL_PCD_ISOINIncompleteCallback:
 555              	.LVL48:
 556              	.LFB143:
 115:USB_DEVICE/Target/usbd_conf.c **** {
 557              		.loc 1 115 1 is_stmt 1 view -0
 558              		.cfi_startproc
 559              		@ args = 0, pretend = 0, frame = 0
 560              		@ frame_needed = 0, uses_anonymous_args = 0
 115:USB_DEVICE/Target/usbd_conf.c **** {
 561              		.loc 1 115 1 is_stmt 0 view .LVU110
 562 0000 08B5     		push	{r3, lr}
 563              	.LCFI13:
 564              		.cfi_def_cfa_offset 8
 565              		.cfi_offset 3, -8
 566              		.cfi_offset 14, -4
 116:USB_DEVICE/Target/usbd_conf.c ****   USBD_LL_IsoINIncomplete((USBD_HandleTypeDef*)hpcd->pData, epnum);
 567              		.loc 1 116 3 is_stmt 1 view .LVU111
ARM GAS  C:\Temp\ccW5xNH5.s 			page 18


 568 0002 D0F8D002 		ldr	r0, [r0, #720]
 569              	.LVL49:
 116:USB_DEVICE/Target/usbd_conf.c ****   USBD_LL_IsoINIncomplete((USBD_HandleTypeDef*)hpcd->pData, epnum);
 570              		.loc 1 116 3 is_stmt 0 view .LVU112
 571 0006 FFF7FEFF 		bl	USBD_LL_IsoINIncomplete
 572              	.LVL50:
 117:USB_DEVICE/Target/usbd_conf.c **** }
 573              		.loc 1 117 1 view .LVU113
 574 000a 08BD     		pop	{r3, pc}
 575              		.cfi_endproc
 576              	.LFE143:
 578              		.section	.text.HAL_PCD_ConnectCallback,"ax",%progbits
 579              		.align	1
 580              		.global	HAL_PCD_ConnectCallback
 581              		.syntax unified
 582              		.thumb
 583              		.thumb_func
 585              	HAL_PCD_ConnectCallback:
 586              	.LVL51:
 587              	.LFB144:
 120:USB_DEVICE/Target/usbd_conf.c **** {
 588              		.loc 1 120 1 is_stmt 1 view -0
 589              		.cfi_startproc
 590              		@ args = 0, pretend = 0, frame = 0
 591              		@ frame_needed = 0, uses_anonymous_args = 0
 120:USB_DEVICE/Target/usbd_conf.c **** {
 592              		.loc 1 120 1 is_stmt 0 view .LVU115
 593 0000 08B5     		push	{r3, lr}
 594              	.LCFI14:
 595              		.cfi_def_cfa_offset 8
 596              		.cfi_offset 3, -8
 597              		.cfi_offset 14, -4
 121:USB_DEVICE/Target/usbd_conf.c ****   USBD_LL_DevConnected((USBD_HandleTypeDef*)hpcd->pData);
 598              		.loc 1 121 3 is_stmt 1 view .LVU116
 599 0002 D0F8D002 		ldr	r0, [r0, #720]
 600              	.LVL52:
 121:USB_DEVICE/Target/usbd_conf.c ****   USBD_LL_DevConnected((USBD_HandleTypeDef*)hpcd->pData);
 601              		.loc 1 121 3 is_stmt 0 view .LVU117
 602 0006 FFF7FEFF 		bl	USBD_LL_DevConnected
 603              	.LVL53:
 122:USB_DEVICE/Target/usbd_conf.c **** }
 604              		.loc 1 122 1 view .LVU118
 605 000a 08BD     		pop	{r3, pc}
 606              		.cfi_endproc
 607              	.LFE144:
 609              		.section	.text.HAL_PCD_DisconnectCallback,"ax",%progbits
 610              		.align	1
 611              		.global	HAL_PCD_DisconnectCallback
 612              		.syntax unified
 613              		.thumb
 614              		.thumb_func
 616              	HAL_PCD_DisconnectCallback:
 617              	.LVL54:
 618              	.LFB145:
 125:USB_DEVICE/Target/usbd_conf.c **** {
 619              		.loc 1 125 1 is_stmt 1 view -0
 620              		.cfi_startproc
ARM GAS  C:\Temp\ccW5xNH5.s 			page 19


 621              		@ args = 0, pretend = 0, frame = 0
 622              		@ frame_needed = 0, uses_anonymous_args = 0
 125:USB_DEVICE/Target/usbd_conf.c **** {
 623              		.loc 1 125 1 is_stmt 0 view .LVU120
 624 0000 08B5     		push	{r3, lr}
 625              	.LCFI15:
 626              		.cfi_def_cfa_offset 8
 627              		.cfi_offset 3, -8
 628              		.cfi_offset 14, -4
 126:USB_DEVICE/Target/usbd_conf.c ****   USBD_LL_DevDisconnected((USBD_HandleTypeDef*)hpcd->pData);
 629              		.loc 1 126 3 is_stmt 1 view .LVU121
 630 0002 D0F8D002 		ldr	r0, [r0, #720]
 631              	.LVL55:
 126:USB_DEVICE/Target/usbd_conf.c ****   USBD_LL_DevDisconnected((USBD_HandleTypeDef*)hpcd->pData);
 632              		.loc 1 126 3 is_stmt 0 view .LVU122
 633 0006 FFF7FEFF 		bl	USBD_LL_DevDisconnected
 634              	.LVL56:
 127:USB_DEVICE/Target/usbd_conf.c **** }
 635              		.loc 1 127 1 view .LVU123
 636 000a 08BD     		pop	{r3, pc}
 637              		.cfi_endproc
 638              	.LFE145:
 640              		.section	.text.USBD_LL_Init,"ax",%progbits
 641              		.align	1
 642              		.global	USBD_LL_Init
 643              		.syntax unified
 644              		.thumb
 645              		.thumb_func
 647              	USBD_LL_Init:
 648              	.LVL57:
 649              	.LFB146:
 134:USB_DEVICE/Target/usbd_conf.c **** {
 650              		.loc 1 134 1 is_stmt 1 view -0
 651              		.cfi_startproc
 652              		@ args = 0, pretend = 0, frame = 0
 653              		@ frame_needed = 0, uses_anonymous_args = 0
 134:USB_DEVICE/Target/usbd_conf.c **** {
 654              		.loc 1 134 1 is_stmt 0 view .LVU125
 655 0000 10B5     		push	{r4, lr}
 656              	.LCFI16:
 657              		.cfi_def_cfa_offset 8
 658              		.cfi_offset 4, -8
 659              		.cfi_offset 14, -4
 660 0002 0446     		mov	r4, r0
 135:USB_DEVICE/Target/usbd_conf.c ****   hpcd_USB_FS.pData = pdev;
 661              		.loc 1 135 3 is_stmt 1 view .LVU126
 135:USB_DEVICE/Target/usbd_conf.c ****   hpcd_USB_FS.pData = pdev;
 662              		.loc 1 135 21 is_stmt 0 view .LVU127
 663 0004 2148     		ldr	r0, .L50
 664              	.LVL58:
 135:USB_DEVICE/Target/usbd_conf.c ****   hpcd_USB_FS.pData = pdev;
 665              		.loc 1 135 21 view .LVU128
 666 0006 C0F8D042 		str	r4, [r0, #720]
 136:USB_DEVICE/Target/usbd_conf.c ****   pdev->pData = &hpcd_USB_FS;
 667              		.loc 1 136 3 is_stmt 1 view .LVU129
 136:USB_DEVICE/Target/usbd_conf.c ****   pdev->pData = &hpcd_USB_FS;
 668              		.loc 1 136 15 is_stmt 0 view .LVU130
ARM GAS  C:\Temp\ccW5xNH5.s 			page 20


 669 000a C4F8C002 		str	r0, [r4, #704]
 138:USB_DEVICE/Target/usbd_conf.c ****   hpcd_USB_FS.Instance = USB;
 670              		.loc 1 138 3 is_stmt 1 view .LVU131
 138:USB_DEVICE/Target/usbd_conf.c ****   hpcd_USB_FS.Instance = USB;
 671              		.loc 1 138 24 is_stmt 0 view .LVU132
 672 000e 204B     		ldr	r3, .L50+4
 673 0010 0360     		str	r3, [r0]
 139:USB_DEVICE/Target/usbd_conf.c ****   hpcd_USB_FS.Init.dev_endpoints = 8;
 674              		.loc 1 139 3 is_stmt 1 view .LVU133
 139:USB_DEVICE/Target/usbd_conf.c ****   hpcd_USB_FS.Init.dev_endpoints = 8;
 675              		.loc 1 139 34 is_stmt 0 view .LVU134
 676 0012 0823     		movs	r3, #8
 677 0014 0371     		strb	r3, [r0, #4]
 140:USB_DEVICE/Target/usbd_conf.c ****   hpcd_USB_FS.Init.speed = PCD_SPEED_FULL;
 678              		.loc 1 140 3 is_stmt 1 view .LVU135
 140:USB_DEVICE/Target/usbd_conf.c ****   hpcd_USB_FS.Init.speed = PCD_SPEED_FULL;
 679              		.loc 1 140 26 is_stmt 0 view .LVU136
 680 0016 0223     		movs	r3, #2
 681 0018 4371     		strb	r3, [r0, #5]
 141:USB_DEVICE/Target/usbd_conf.c ****   hpcd_USB_FS.Init.phy_itface = PCD_PHY_EMBEDDED;
 682              		.loc 1 141 3 is_stmt 1 view .LVU137
 141:USB_DEVICE/Target/usbd_conf.c ****   hpcd_USB_FS.Init.phy_itface = PCD_PHY_EMBEDDED;
 683              		.loc 1 141 31 is_stmt 0 view .LVU138
 684 001a C371     		strb	r3, [r0, #7]
 142:USB_DEVICE/Target/usbd_conf.c ****   hpcd_USB_FS.Init.low_power_enable = DISABLE;
 685              		.loc 1 142 3 is_stmt 1 view .LVU139
 142:USB_DEVICE/Target/usbd_conf.c ****   hpcd_USB_FS.Init.low_power_enable = DISABLE;
 686              		.loc 1 142 37 is_stmt 0 view .LVU140
 687 001c 0023     		movs	r3, #0
 688 001e 4372     		strb	r3, [r0, #9]
 143:USB_DEVICE/Target/usbd_conf.c ****   hpcd_USB_FS.Init.battery_charging_enable = DISABLE;
 689              		.loc 1 143 3 is_stmt 1 view .LVU141
 143:USB_DEVICE/Target/usbd_conf.c ****   hpcd_USB_FS.Init.battery_charging_enable = DISABLE;
 690              		.loc 1 143 44 is_stmt 0 view .LVU142
 691 0020 C372     		strb	r3, [r0, #11]
 144:USB_DEVICE/Target/usbd_conf.c ****   if (HAL_PCD_Init(&hpcd_USB_FS) != HAL_OK)
 692              		.loc 1 144 3 is_stmt 1 view .LVU143
 144:USB_DEVICE/Target/usbd_conf.c ****   if (HAL_PCD_Init(&hpcd_USB_FS) != HAL_OK)
 693              		.loc 1 144 7 is_stmt 0 view .LVU144
 694 0022 FFF7FEFF 		bl	HAL_PCD_Init
 695              	.LVL59:
 144:USB_DEVICE/Target/usbd_conf.c ****   if (HAL_PCD_Init(&hpcd_USB_FS) != HAL_OK)
 696              		.loc 1 144 6 discriminator 1 view .LVU145
 697 0026 68BB     		cbnz	r0, .L49
 698              	.L47:
 154:USB_DEVICE/Target/usbd_conf.c ****   HAL_PCDEx_PMAConfig((PCD_HandleTypeDef*)pdev->pData , 0x00 , PCD_SNG_BUF, 0x18);
 699              		.loc 1 154 3 is_stmt 1 view .LVU146
 700 0028 1823     		movs	r3, #24
 701 002a 0022     		movs	r2, #0
 702 002c 1146     		mov	r1, r2
 703 002e D4F8C002 		ldr	r0, [r4, #704]
 704 0032 FFF7FEFF 		bl	HAL_PCDEx_PMAConfig
 705              	.LVL60:
 155:USB_DEVICE/Target/usbd_conf.c ****   HAL_PCDEx_PMAConfig((PCD_HandleTypeDef*)pdev->pData , 0x80 , PCD_SNG_BUF, 0x58);
 706              		.loc 1 155 3 view .LVU147
 707 0036 5823     		movs	r3, #88
 708 0038 0022     		movs	r2, #0
ARM GAS  C:\Temp\ccW5xNH5.s 			page 21


 709 003a 8021     		movs	r1, #128
 710 003c D4F8C002 		ldr	r0, [r4, #704]
 711 0040 FFF7FEFF 		bl	HAL_PCDEx_PMAConfig
 712              	.LVL61:
 161:USB_DEVICE/Target/usbd_conf.c ****   HAL_PCDEx_PMAConfig((PCD_HandleTypeDef*)pdev->pData , 0x81 , PCD_SNG_BUF, 0x98);  // IN
 713              		.loc 1 161 3 view .LVU148
 714 0044 9823     		movs	r3, #152
 715 0046 0022     		movs	r2, #0
 716 0048 8121     		movs	r1, #129
 717 004a D4F8C002 		ldr	r0, [r4, #704]
 718 004e FFF7FEFF 		bl	HAL_PCDEx_PMAConfig
 719              	.LVL62:
 162:USB_DEVICE/Target/usbd_conf.c ****   HAL_PCDEx_PMAConfig((PCD_HandleTypeDef*)pdev->pData , 0x02 , PCD_SNG_BUF, 0xD8);  // OUT
 720              		.loc 1 162 3 view .LVU149
 721 0052 D823     		movs	r3, #216
 722 0054 0022     		movs	r2, #0
 723 0056 0221     		movs	r1, #2
 724 0058 D4F8C002 		ldr	r0, [r4, #704]
 725 005c FFF7FEFF 		bl	HAL_PCDEx_PMAConfig
 726              	.LVL63:
 165:USB_DEVICE/Target/usbd_conf.c ****   HAL_PCDEx_PMAConfig((PCD_HandleTypeDef*)pdev->pData , 0x83 , PCD_SNG_BUF, 0x118); // IN
 727              		.loc 1 165 3 view .LVU150
 728 0060 4FF48C73 		mov	r3, #280
 729 0064 0022     		movs	r2, #0
 730 0066 8321     		movs	r1, #131
 731 0068 D4F8C002 		ldr	r0, [r4, #704]
 732 006c FFF7FEFF 		bl	HAL_PCDEx_PMAConfig
 733              	.LVL64:
 166:USB_DEVICE/Target/usbd_conf.c ****   HAL_PCDEx_PMAConfig((PCD_HandleTypeDef*)pdev->pData , 0x03 , PCD_SNG_BUF, 0x158); // OUT
 734              		.loc 1 166 3 view .LVU151
 735 0070 4FF4AC73 		mov	r3, #344
 736 0074 0022     		movs	r2, #0
 737 0076 0321     		movs	r1, #3
 738 0078 D4F8C002 		ldr	r0, [r4, #704]
 739 007c FFF7FEFF 		bl	HAL_PCDEx_PMAConfig
 740              	.LVL65:
 169:USB_DEVICE/Target/usbd_conf.c ****   return USBD_OK;
 741              		.loc 1 169 3 view .LVU152
 170:USB_DEVICE/Target/usbd_conf.c **** }
 742              		.loc 1 170 1 is_stmt 0 view .LVU153
 743 0080 0020     		movs	r0, #0
 744 0082 10BD     		pop	{r4, pc}
 745              	.LVL66:
 746              	.L49:
 146:USB_DEVICE/Target/usbd_conf.c ****     Error_Handler( );
 747              		.loc 1 146 5 is_stmt 1 view .LVU154
 748 0084 FFF7FEFF 		bl	Error_Handler
 749              	.LVL67:
 750 0088 CEE7     		b	.L47
 751              	.L51:
 752 008a 00BF     		.align	2
 753              	.L50:
 754 008c 00000000 		.word	hpcd_USB_FS
 755 0090 005C0040 		.word	1073765376
 756              		.cfi_endproc
 757              	.LFE146:
 759              		.section	.text.USBD_LL_DeInit,"ax",%progbits
ARM GAS  C:\Temp\ccW5xNH5.s 			page 22


 760              		.align	1
 761              		.global	USBD_LL_DeInit
 762              		.syntax unified
 763              		.thumb
 764              		.thumb_func
 766              	USBD_LL_DeInit:
 767              	.LVL68:
 768              	.LFB147:
 173:USB_DEVICE/Target/usbd_conf.c **** {
 769              		.loc 1 173 1 view -0
 770              		.cfi_startproc
 771              		@ args = 0, pretend = 0, frame = 0
 772              		@ frame_needed = 0, uses_anonymous_args = 0
 173:USB_DEVICE/Target/usbd_conf.c **** {
 773              		.loc 1 173 1 is_stmt 0 view .LVU156
 774 0000 08B5     		push	{r3, lr}
 775              	.LCFI17:
 776              		.cfi_def_cfa_offset 8
 777              		.cfi_offset 3, -8
 778              		.cfi_offset 14, -4
 174:USB_DEVICE/Target/usbd_conf.c ****   HAL_StatusTypeDef hal_status = HAL_OK;
 779              		.loc 1 174 3 is_stmt 1 view .LVU157
 780              	.LVL69:
 175:USB_DEVICE/Target/usbd_conf.c ****   USBD_StatusTypeDef usb_status = USBD_OK;
 781              		.loc 1 175 3 view .LVU158
 176:USB_DEVICE/Target/usbd_conf.c ****   hal_status = HAL_PCD_DeInit(pdev->pData);
 782              		.loc 1 176 3 view .LVU159
 176:USB_DEVICE/Target/usbd_conf.c ****   hal_status = HAL_PCD_DeInit(pdev->pData);
 783              		.loc 1 176 16 is_stmt 0 view .LVU160
 784 0002 D0F8C002 		ldr	r0, [r0, #704]
 785              	.LVL70:
 176:USB_DEVICE/Target/usbd_conf.c ****   hal_status = HAL_PCD_DeInit(pdev->pData);
 786              		.loc 1 176 16 view .LVU161
 787 0006 FFF7FEFF 		bl	HAL_PCD_DeInit
 788              	.LVL71:
 177:USB_DEVICE/Target/usbd_conf.c ****   usb_status =  USBD_Get_USB_Status(hal_status);
 789              		.loc 1 177 3 is_stmt 1 view .LVU162
 177:USB_DEVICE/Target/usbd_conf.c ****   usb_status =  USBD_Get_USB_Status(hal_status);
 790              		.loc 1 177 17 is_stmt 0 view .LVU163
 791 000a FFF7FEFF 		bl	USBD_Get_USB_Status
 792              	.LVL72:
 178:USB_DEVICE/Target/usbd_conf.c ****   return usb_status;
 793              		.loc 1 178 3 is_stmt 1 view .LVU164
 179:USB_DEVICE/Target/usbd_conf.c **** }
 794              		.loc 1 179 1 is_stmt 0 view .LVU165
 795 000e 08BD     		pop	{r3, pc}
 796              		.cfi_endproc
 797              	.LFE147:
 799              		.section	.text.USBD_LL_Start,"ax",%progbits
 800              		.align	1
 801              		.global	USBD_LL_Start
 802              		.syntax unified
 803              		.thumb
 804              		.thumb_func
 806              	USBD_LL_Start:
 807              	.LVL73:
 808              	.LFB148:
ARM GAS  C:\Temp\ccW5xNH5.s 			page 23


 182:USB_DEVICE/Target/usbd_conf.c **** {
 809              		.loc 1 182 1 is_stmt 1 view -0
 810              		.cfi_startproc
 811              		@ args = 0, pretend = 0, frame = 0
 812              		@ frame_needed = 0, uses_anonymous_args = 0
 182:USB_DEVICE/Target/usbd_conf.c **** {
 813              		.loc 1 182 1 is_stmt 0 view .LVU167
 814 0000 08B5     		push	{r3, lr}
 815              	.LCFI18:
 816              		.cfi_def_cfa_offset 8
 817              		.cfi_offset 3, -8
 818              		.cfi_offset 14, -4
 183:USB_DEVICE/Target/usbd_conf.c ****   HAL_StatusTypeDef hal_status = HAL_OK;
 819              		.loc 1 183 3 is_stmt 1 view .LVU168
 820              	.LVL74:
 184:USB_DEVICE/Target/usbd_conf.c ****   USBD_StatusTypeDef usb_status = USBD_OK;
 821              		.loc 1 184 3 view .LVU169
 185:USB_DEVICE/Target/usbd_conf.c ****   hal_status = HAL_PCD_Start(pdev->pData);
 822              		.loc 1 185 3 view .LVU170
 185:USB_DEVICE/Target/usbd_conf.c ****   hal_status = HAL_PCD_Start(pdev->pData);
 823              		.loc 1 185 16 is_stmt 0 view .LVU171
 824 0002 D0F8C002 		ldr	r0, [r0, #704]
 825              	.LVL75:
 185:USB_DEVICE/Target/usbd_conf.c ****   hal_status = HAL_PCD_Start(pdev->pData);
 826              		.loc 1 185 16 view .LVU172
 827 0006 FFF7FEFF 		bl	HAL_PCD_Start
 828              	.LVL76:
 186:USB_DEVICE/Target/usbd_conf.c ****   usb_status =  USBD_Get_USB_Status(hal_status);
 829              		.loc 1 186 3 is_stmt 1 view .LVU173
 186:USB_DEVICE/Target/usbd_conf.c ****   usb_status =  USBD_Get_USB_Status(hal_status);
 830              		.loc 1 186 17 is_stmt 0 view .LVU174
 831 000a FFF7FEFF 		bl	USBD_Get_USB_Status
 832              	.LVL77:
 187:USB_DEVICE/Target/usbd_conf.c ****   return usb_status;
 833              		.loc 1 187 3 is_stmt 1 view .LVU175
 188:USB_DEVICE/Target/usbd_conf.c **** }
 834              		.loc 1 188 1 is_stmt 0 view .LVU176
 835 000e 08BD     		pop	{r3, pc}
 836              		.cfi_endproc
 837              	.LFE148:
 839              		.section	.text.USBD_LL_Stop,"ax",%progbits
 840              		.align	1
 841              		.global	USBD_LL_Stop
 842              		.syntax unified
 843              		.thumb
 844              		.thumb_func
 846              	USBD_LL_Stop:
 847              	.LVL78:
 848              	.LFB149:
 191:USB_DEVICE/Target/usbd_conf.c **** {
 849              		.loc 1 191 1 is_stmt 1 view -0
 850              		.cfi_startproc
 851              		@ args = 0, pretend = 0, frame = 0
 852              		@ frame_needed = 0, uses_anonymous_args = 0
 191:USB_DEVICE/Target/usbd_conf.c **** {
 853              		.loc 1 191 1 is_stmt 0 view .LVU178
 854 0000 08B5     		push	{r3, lr}
ARM GAS  C:\Temp\ccW5xNH5.s 			page 24


 855              	.LCFI19:
 856              		.cfi_def_cfa_offset 8
 857              		.cfi_offset 3, -8
 858              		.cfi_offset 14, -4
 192:USB_DEVICE/Target/usbd_conf.c ****   HAL_StatusTypeDef hal_status = HAL_OK;
 859              		.loc 1 192 3 is_stmt 1 view .LVU179
 860              	.LVL79:
 193:USB_DEVICE/Target/usbd_conf.c ****   USBD_StatusTypeDef usb_status = USBD_OK;
 861              		.loc 1 193 3 view .LVU180
 194:USB_DEVICE/Target/usbd_conf.c ****   hal_status = HAL_PCD_Stop(pdev->pData);
 862              		.loc 1 194 3 view .LVU181
 194:USB_DEVICE/Target/usbd_conf.c ****   hal_status = HAL_PCD_Stop(pdev->pData);
 863              		.loc 1 194 16 is_stmt 0 view .LVU182
 864 0002 D0F8C002 		ldr	r0, [r0, #704]
 865              	.LVL80:
 194:USB_DEVICE/Target/usbd_conf.c ****   hal_status = HAL_PCD_Stop(pdev->pData);
 866              		.loc 1 194 16 view .LVU183
 867 0006 FFF7FEFF 		bl	HAL_PCD_Stop
 868              	.LVL81:
 195:USB_DEVICE/Target/usbd_conf.c ****   usb_status =  USBD_Get_USB_Status(hal_status);
 869              		.loc 1 195 3 is_stmt 1 view .LVU184
 195:USB_DEVICE/Target/usbd_conf.c ****   usb_status =  USBD_Get_USB_Status(hal_status);
 870              		.loc 1 195 17 is_stmt 0 view .LVU185
 871 000a FFF7FEFF 		bl	USBD_Get_USB_Status
 872              	.LVL82:
 196:USB_DEVICE/Target/usbd_conf.c ****   return usb_status;
 873              		.loc 1 196 3 is_stmt 1 view .LVU186
 197:USB_DEVICE/Target/usbd_conf.c **** }
 874              		.loc 1 197 1 is_stmt 0 view .LVU187
 875 000e 08BD     		pop	{r3, pc}
 876              		.cfi_endproc
 877              	.LFE149:
 879              		.section	.text.USBD_LL_OpenEP,"ax",%progbits
 880              		.align	1
 881              		.global	USBD_LL_OpenEP
 882              		.syntax unified
 883              		.thumb
 884              		.thumb_func
 886              	USBD_LL_OpenEP:
 887              	.LVL83:
 888              	.LFB150:
 200:USB_DEVICE/Target/usbd_conf.c **** {
 889              		.loc 1 200 1 is_stmt 1 view -0
 890              		.cfi_startproc
 891              		@ args = 0, pretend = 0, frame = 0
 892              		@ frame_needed = 0, uses_anonymous_args = 0
 200:USB_DEVICE/Target/usbd_conf.c **** {
 893              		.loc 1 200 1 is_stmt 0 view .LVU189
 894 0000 08B5     		push	{r3, lr}
 895              	.LCFI20:
 896              		.cfi_def_cfa_offset 8
 897              		.cfi_offset 3, -8
 898              		.cfi_offset 14, -4
 899 0002 9446     		mov	ip, r2
 900 0004 1A46     		mov	r2, r3
 901              	.LVL84:
 201:USB_DEVICE/Target/usbd_conf.c ****   HAL_StatusTypeDef hal_status = HAL_OK;
ARM GAS  C:\Temp\ccW5xNH5.s 			page 25


 902              		.loc 1 201 3 is_stmt 1 view .LVU190
 202:USB_DEVICE/Target/usbd_conf.c ****   USBD_StatusTypeDef usb_status = USBD_OK;
 903              		.loc 1 202 3 view .LVU191
 203:USB_DEVICE/Target/usbd_conf.c ****   hal_status = HAL_PCD_EP_Open(pdev->pData, ep_addr, ep_mps, ep_type);
 904              		.loc 1 203 3 view .LVU192
 203:USB_DEVICE/Target/usbd_conf.c ****   hal_status = HAL_PCD_EP_Open(pdev->pData, ep_addr, ep_mps, ep_type);
 905              		.loc 1 203 16 is_stmt 0 view .LVU193
 906 0006 6346     		mov	r3, ip
 907              	.LVL85:
 203:USB_DEVICE/Target/usbd_conf.c ****   hal_status = HAL_PCD_EP_Open(pdev->pData, ep_addr, ep_mps, ep_type);
 908              		.loc 1 203 16 view .LVU194
 909 0008 D0F8C002 		ldr	r0, [r0, #704]
 910              	.LVL86:
 203:USB_DEVICE/Target/usbd_conf.c ****   hal_status = HAL_PCD_EP_Open(pdev->pData, ep_addr, ep_mps, ep_type);
 911              		.loc 1 203 16 view .LVU195
 912 000c FFF7FEFF 		bl	HAL_PCD_EP_Open
 913              	.LVL87:
 204:USB_DEVICE/Target/usbd_conf.c ****   usb_status =  USBD_Get_USB_Status(hal_status);
 914              		.loc 1 204 3 is_stmt 1 view .LVU196
 204:USB_DEVICE/Target/usbd_conf.c ****   usb_status =  USBD_Get_USB_Status(hal_status);
 915              		.loc 1 204 17 is_stmt 0 view .LVU197
 916 0010 FFF7FEFF 		bl	USBD_Get_USB_Status
 917              	.LVL88:
 205:USB_DEVICE/Target/usbd_conf.c ****   return usb_status;
 918              		.loc 1 205 3 is_stmt 1 view .LVU198
 206:USB_DEVICE/Target/usbd_conf.c **** }
 919              		.loc 1 206 1 is_stmt 0 view .LVU199
 920 0014 08BD     		pop	{r3, pc}
 921              		.cfi_endproc
 922              	.LFE150:
 924              		.section	.text.USBD_LL_CloseEP,"ax",%progbits
 925              		.align	1
 926              		.global	USBD_LL_CloseEP
 927              		.syntax unified
 928              		.thumb
 929              		.thumb_func
 931              	USBD_LL_CloseEP:
 932              	.LVL89:
 933              	.LFB151:
 209:USB_DEVICE/Target/usbd_conf.c **** {
 934              		.loc 1 209 1 is_stmt 1 view -0
 935              		.cfi_startproc
 936              		@ args = 0, pretend = 0, frame = 0
 937              		@ frame_needed = 0, uses_anonymous_args = 0
 209:USB_DEVICE/Target/usbd_conf.c **** {
 938              		.loc 1 209 1 is_stmt 0 view .LVU201
 939 0000 08B5     		push	{r3, lr}
 940              	.LCFI21:
 941              		.cfi_def_cfa_offset 8
 942              		.cfi_offset 3, -8
 943              		.cfi_offset 14, -4
 210:USB_DEVICE/Target/usbd_conf.c ****   HAL_StatusTypeDef hal_status = HAL_OK;
 944              		.loc 1 210 3 is_stmt 1 view .LVU202
 945              	.LVL90:
 211:USB_DEVICE/Target/usbd_conf.c ****   USBD_StatusTypeDef usb_status = USBD_OK;
 946              		.loc 1 211 3 view .LVU203
 212:USB_DEVICE/Target/usbd_conf.c ****   hal_status = HAL_PCD_EP_Close(pdev->pData, ep_addr);
ARM GAS  C:\Temp\ccW5xNH5.s 			page 26


 947              		.loc 1 212 3 view .LVU204
 212:USB_DEVICE/Target/usbd_conf.c ****   hal_status = HAL_PCD_EP_Close(pdev->pData, ep_addr);
 948              		.loc 1 212 16 is_stmt 0 view .LVU205
 949 0002 D0F8C002 		ldr	r0, [r0, #704]
 950              	.LVL91:
 212:USB_DEVICE/Target/usbd_conf.c ****   hal_status = HAL_PCD_EP_Close(pdev->pData, ep_addr);
 951              		.loc 1 212 16 view .LVU206
 952 0006 FFF7FEFF 		bl	HAL_PCD_EP_Close
 953              	.LVL92:
 213:USB_DEVICE/Target/usbd_conf.c ****   usb_status =  USBD_Get_USB_Status(hal_status);
 954              		.loc 1 213 3 is_stmt 1 view .LVU207
 213:USB_DEVICE/Target/usbd_conf.c ****   usb_status =  USBD_Get_USB_Status(hal_status);
 955              		.loc 1 213 17 is_stmt 0 view .LVU208
 956 000a FFF7FEFF 		bl	USBD_Get_USB_Status
 957              	.LVL93:
 214:USB_DEVICE/Target/usbd_conf.c ****   return usb_status;
 958              		.loc 1 214 3 is_stmt 1 view .LVU209
 215:USB_DEVICE/Target/usbd_conf.c **** }
 959              		.loc 1 215 1 is_stmt 0 view .LVU210
 960 000e 08BD     		pop	{r3, pc}
 961              		.cfi_endproc
 962              	.LFE151:
 964              		.section	.text.USBD_LL_FlushEP,"ax",%progbits
 965              		.align	1
 966              		.global	USBD_LL_FlushEP
 967              		.syntax unified
 968              		.thumb
 969              		.thumb_func
 971              	USBD_LL_FlushEP:
 972              	.LVL94:
 973              	.LFB152:
 218:USB_DEVICE/Target/usbd_conf.c **** {
 974              		.loc 1 218 1 is_stmt 1 view -0
 975              		.cfi_startproc
 976              		@ args = 0, pretend = 0, frame = 0
 977              		@ frame_needed = 0, uses_anonymous_args = 0
 218:USB_DEVICE/Target/usbd_conf.c **** {
 978              		.loc 1 218 1 is_stmt 0 view .LVU212
 979 0000 08B5     		push	{r3, lr}
 980              	.LCFI22:
 981              		.cfi_def_cfa_offset 8
 982              		.cfi_offset 3, -8
 983              		.cfi_offset 14, -4
 219:USB_DEVICE/Target/usbd_conf.c ****   HAL_StatusTypeDef hal_status = HAL_OK;
 984              		.loc 1 219 3 is_stmt 1 view .LVU213
 985              	.LVL95:
 220:USB_DEVICE/Target/usbd_conf.c ****   USBD_StatusTypeDef usb_status = USBD_OK;
 986              		.loc 1 220 3 view .LVU214
 221:USB_DEVICE/Target/usbd_conf.c ****   hal_status = HAL_PCD_EP_Flush(pdev->pData, ep_addr);
 987              		.loc 1 221 3 view .LVU215
 221:USB_DEVICE/Target/usbd_conf.c ****   hal_status = HAL_PCD_EP_Flush(pdev->pData, ep_addr);
 988              		.loc 1 221 16 is_stmt 0 view .LVU216
 989 0002 D0F8C002 		ldr	r0, [r0, #704]
 990              	.LVL96:
 221:USB_DEVICE/Target/usbd_conf.c ****   hal_status = HAL_PCD_EP_Flush(pdev->pData, ep_addr);
 991              		.loc 1 221 16 view .LVU217
 992 0006 FFF7FEFF 		bl	HAL_PCD_EP_Flush
ARM GAS  C:\Temp\ccW5xNH5.s 			page 27


 993              	.LVL97:
 222:USB_DEVICE/Target/usbd_conf.c ****   usb_status =  USBD_Get_USB_Status(hal_status);
 994              		.loc 1 222 3 is_stmt 1 view .LVU218
 222:USB_DEVICE/Target/usbd_conf.c ****   usb_status =  USBD_Get_USB_Status(hal_status);
 995              		.loc 1 222 17 is_stmt 0 view .LVU219
 996 000a FFF7FEFF 		bl	USBD_Get_USB_Status
 997              	.LVL98:
 223:USB_DEVICE/Target/usbd_conf.c ****   return usb_status;
 998              		.loc 1 223 3 is_stmt 1 view .LVU220
 224:USB_DEVICE/Target/usbd_conf.c **** }
 999              		.loc 1 224 1 is_stmt 0 view .LVU221
 1000 000e 08BD     		pop	{r3, pc}
 1001              		.cfi_endproc
 1002              	.LFE152:
 1004              		.section	.text.USBD_LL_StallEP,"ax",%progbits
 1005              		.align	1
 1006              		.global	USBD_LL_StallEP
 1007              		.syntax unified
 1008              		.thumb
 1009              		.thumb_func
 1011              	USBD_LL_StallEP:
 1012              	.LVL99:
 1013              	.LFB153:
 227:USB_DEVICE/Target/usbd_conf.c **** {
 1014              		.loc 1 227 1 is_stmt 1 view -0
 1015              		.cfi_startproc
 1016              		@ args = 0, pretend = 0, frame = 0
 1017              		@ frame_needed = 0, uses_anonymous_args = 0
 227:USB_DEVICE/Target/usbd_conf.c **** {
 1018              		.loc 1 227 1 is_stmt 0 view .LVU223
 1019 0000 08B5     		push	{r3, lr}
 1020              	.LCFI23:
 1021              		.cfi_def_cfa_offset 8
 1022              		.cfi_offset 3, -8
 1023              		.cfi_offset 14, -4
 228:USB_DEVICE/Target/usbd_conf.c ****   HAL_StatusTypeDef hal_status = HAL_OK;
 1024              		.loc 1 228 3 is_stmt 1 view .LVU224
 1025              	.LVL100:
 229:USB_DEVICE/Target/usbd_conf.c ****   USBD_StatusTypeDef usb_status = USBD_OK;
 1026              		.loc 1 229 3 view .LVU225
 230:USB_DEVICE/Target/usbd_conf.c ****   hal_status = HAL_PCD_EP_SetStall(pdev->pData, ep_addr);
 1027              		.loc 1 230 3 view .LVU226
 230:USB_DEVICE/Target/usbd_conf.c ****   hal_status = HAL_PCD_EP_SetStall(pdev->pData, ep_addr);
 1028              		.loc 1 230 16 is_stmt 0 view .LVU227
 1029 0002 D0F8C002 		ldr	r0, [r0, #704]
 1030              	.LVL101:
 230:USB_DEVICE/Target/usbd_conf.c ****   hal_status = HAL_PCD_EP_SetStall(pdev->pData, ep_addr);
 1031              		.loc 1 230 16 view .LVU228
 1032 0006 FFF7FEFF 		bl	HAL_PCD_EP_SetStall
 1033              	.LVL102:
 231:USB_DEVICE/Target/usbd_conf.c ****   usb_status =  USBD_Get_USB_Status(hal_status);
 1034              		.loc 1 231 3 is_stmt 1 view .LVU229
 231:USB_DEVICE/Target/usbd_conf.c ****   usb_status =  USBD_Get_USB_Status(hal_status);
 1035              		.loc 1 231 17 is_stmt 0 view .LVU230
 1036 000a FFF7FEFF 		bl	USBD_Get_USB_Status
 1037              	.LVL103:
 232:USB_DEVICE/Target/usbd_conf.c ****   return usb_status;
ARM GAS  C:\Temp\ccW5xNH5.s 			page 28


 1038              		.loc 1 232 3 is_stmt 1 view .LVU231
 233:USB_DEVICE/Target/usbd_conf.c **** }
 1039              		.loc 1 233 1 is_stmt 0 view .LVU232
 1040 000e 08BD     		pop	{r3, pc}
 1041              		.cfi_endproc
 1042              	.LFE153:
 1044              		.section	.text.USBD_LL_ClearStallEP,"ax",%progbits
 1045              		.align	1
 1046              		.global	USBD_LL_ClearStallEP
 1047              		.syntax unified
 1048              		.thumb
 1049              		.thumb_func
 1051              	USBD_LL_ClearStallEP:
 1052              	.LVL104:
 1053              	.LFB154:
 236:USB_DEVICE/Target/usbd_conf.c **** {
 1054              		.loc 1 236 1 is_stmt 1 view -0
 1055              		.cfi_startproc
 1056              		@ args = 0, pretend = 0, frame = 0
 1057              		@ frame_needed = 0, uses_anonymous_args = 0
 236:USB_DEVICE/Target/usbd_conf.c **** {
 1058              		.loc 1 236 1 is_stmt 0 view .LVU234
 1059 0000 08B5     		push	{r3, lr}
 1060              	.LCFI24:
 1061              		.cfi_def_cfa_offset 8
 1062              		.cfi_offset 3, -8
 1063              		.cfi_offset 14, -4
 237:USB_DEVICE/Target/usbd_conf.c ****   HAL_StatusTypeDef hal_status = HAL_OK;
 1064              		.loc 1 237 3 is_stmt 1 view .LVU235
 1065              	.LVL105:
 238:USB_DEVICE/Target/usbd_conf.c ****   USBD_StatusTypeDef usb_status = USBD_OK;
 1066              		.loc 1 238 3 view .LVU236
 239:USB_DEVICE/Target/usbd_conf.c ****   hal_status = HAL_PCD_EP_ClrStall(pdev->pData, ep_addr);
 1067              		.loc 1 239 3 view .LVU237
 239:USB_DEVICE/Target/usbd_conf.c ****   hal_status = HAL_PCD_EP_ClrStall(pdev->pData, ep_addr);
 1068              		.loc 1 239 16 is_stmt 0 view .LVU238
 1069 0002 D0F8C002 		ldr	r0, [r0, #704]
 1070              	.LVL106:
 239:USB_DEVICE/Target/usbd_conf.c ****   hal_status = HAL_PCD_EP_ClrStall(pdev->pData, ep_addr);
 1071              		.loc 1 239 16 view .LVU239
 1072 0006 FFF7FEFF 		bl	HAL_PCD_EP_ClrStall
 1073              	.LVL107:
 240:USB_DEVICE/Target/usbd_conf.c ****   usb_status =  USBD_Get_USB_Status(hal_status);
 1074              		.loc 1 240 3 is_stmt 1 view .LVU240
 240:USB_DEVICE/Target/usbd_conf.c ****   usb_status =  USBD_Get_USB_Status(hal_status);
 1075              		.loc 1 240 17 is_stmt 0 view .LVU241
 1076 000a FFF7FEFF 		bl	USBD_Get_USB_Status
 1077              	.LVL108:
 241:USB_DEVICE/Target/usbd_conf.c ****   return usb_status;
 1078              		.loc 1 241 3 is_stmt 1 view .LVU242
 242:USB_DEVICE/Target/usbd_conf.c **** }
 1079              		.loc 1 242 1 is_stmt 0 view .LVU243
 1080 000e 08BD     		pop	{r3, pc}
 1081              		.cfi_endproc
 1082              	.LFE154:
 1084              		.section	.text.USBD_LL_IsStallEP,"ax",%progbits
 1085              		.align	1
ARM GAS  C:\Temp\ccW5xNH5.s 			page 29


 1086              		.global	USBD_LL_IsStallEP
 1087              		.syntax unified
 1088              		.thumb
 1089              		.thumb_func
 1091              	USBD_LL_IsStallEP:
 1092              	.LVL109:
 1093              	.LFB155:
 245:USB_DEVICE/Target/usbd_conf.c **** {
 1094              		.loc 1 245 1 is_stmt 1 view -0
 1095              		.cfi_startproc
 1096              		@ args = 0, pretend = 0, frame = 0
 1097              		@ frame_needed = 0, uses_anonymous_args = 0
 1098              		@ link register save eliminated.
 246:USB_DEVICE/Target/usbd_conf.c ****   PCD_HandleTypeDef *hpcd = (PCD_HandleTypeDef*) pdev->pData;
 1099              		.loc 1 246 3 view .LVU245
 246:USB_DEVICE/Target/usbd_conf.c ****   PCD_HandleTypeDef *hpcd = (PCD_HandleTypeDef*) pdev->pData;
 1100              		.loc 1 246 22 is_stmt 0 view .LVU246
 1101 0000 D0F8C032 		ldr	r3, [r0, #704]
 1102              	.LVL110:
 247:USB_DEVICE/Target/usbd_conf.c ****   if((ep_addr & 0x80) == 0x80)
 1103              		.loc 1 247 3 is_stmt 1 view .LVU247
 247:USB_DEVICE/Target/usbd_conf.c ****   if((ep_addr & 0x80) == 0x80)
 1104              		.loc 1 247 5 is_stmt 0 view .LVU248
 1105 0004 11F0800F 		tst	r1, #128
 1106 0008 08D1     		bne	.L71
 253:USB_DEVICE/Target/usbd_conf.c ****     return hpcd->OUT_ep[ep_addr & 0x7F].is_stall;
 1107              		.loc 1 253 5 is_stmt 1 view .LVU249
 253:USB_DEVICE/Target/usbd_conf.c ****     return hpcd->OUT_ep[ep_addr & 0x7F].is_stall;
 1108              		.loc 1 253 33 is_stmt 0 view .LVU250
 1109 000a 01F07F01 		and	r1, r1, #127
 1110              	.LVL111:
 253:USB_DEVICE/Target/usbd_conf.c ****     return hpcd->OUT_ep[ep_addr & 0x7F].is_stall;
 1111              		.loc 1 253 40 view .LVU251
 1112 000e 01EB8101 		add	r1, r1, r1, lsl #2
 1113 0012 03EBC103 		add	r3, r3, r1, lsl #3
 1114              	.LVL112:
 253:USB_DEVICE/Target/usbd_conf.c ****     return hpcd->OUT_ep[ep_addr & 0x7F].is_stall;
 1115              		.loc 1 253 40 view .LVU252
 1116 0016 93F85201 		ldrb	r0, [r3, #338]	@ zero_extendqisi2
 1117              	.LVL113:
 255:USB_DEVICE/Target/usbd_conf.c **** }
 1118              		.loc 1 255 1 view .LVU253
 1119 001a 7047     		bx	lr
 1120              	.LVL114:
 1121              	.L71:
 249:USB_DEVICE/Target/usbd_conf.c ****     return hpcd->IN_ep[ep_addr & 0x7F].is_stall;
 1122              		.loc 1 249 5 is_stmt 1 view .LVU254
 249:USB_DEVICE/Target/usbd_conf.c ****     return hpcd->IN_ep[ep_addr & 0x7F].is_stall;
 1123              		.loc 1 249 32 is_stmt 0 view .LVU255
 1124 001c 01F07F01 		and	r1, r1, #127
 1125              	.LVL115:
 249:USB_DEVICE/Target/usbd_conf.c ****     return hpcd->IN_ep[ep_addr & 0x7F].is_stall;
 1126              		.loc 1 249 39 view .LVU256
 1127 0020 01EB8101 		add	r1, r1, r1, lsl #2
 1128 0024 03EBC103 		add	r3, r3, r1, lsl #3
 1129              	.LVL116:
 249:USB_DEVICE/Target/usbd_conf.c ****     return hpcd->IN_ep[ep_addr & 0x7F].is_stall;
ARM GAS  C:\Temp\ccW5xNH5.s 			page 30


 1130              		.loc 1 249 39 view .LVU257
 1131 0028 987C     		ldrb	r0, [r3, #18]	@ zero_extendqisi2
 1132              	.LVL117:
 249:USB_DEVICE/Target/usbd_conf.c ****     return hpcd->IN_ep[ep_addr & 0x7F].is_stall;
 1133              		.loc 1 249 39 view .LVU258
 1134 002a 7047     		bx	lr
 1135              		.cfi_endproc
 1136              	.LFE155:
 1138              		.section	.text.USBD_LL_SetUSBAddress,"ax",%progbits
 1139              		.align	1
 1140              		.global	USBD_LL_SetUSBAddress
 1141              		.syntax unified
 1142              		.thumb
 1143              		.thumb_func
 1145              	USBD_LL_SetUSBAddress:
 1146              	.LVL118:
 1147              	.LFB156:
 258:USB_DEVICE/Target/usbd_conf.c **** {
 1148              		.loc 1 258 1 is_stmt 1 view -0
 1149              		.cfi_startproc
 1150              		@ args = 0, pretend = 0, frame = 0
 1151              		@ frame_needed = 0, uses_anonymous_args = 0
 258:USB_DEVICE/Target/usbd_conf.c **** {
 1152              		.loc 1 258 1 is_stmt 0 view .LVU260
 1153 0000 08B5     		push	{r3, lr}
 1154              	.LCFI25:
 1155              		.cfi_def_cfa_offset 8
 1156              		.cfi_offset 3, -8
 1157              		.cfi_offset 14, -4
 259:USB_DEVICE/Target/usbd_conf.c ****   HAL_StatusTypeDef hal_status = HAL_OK;
 1158              		.loc 1 259 3 is_stmt 1 view .LVU261
 1159              	.LVL119:
 260:USB_DEVICE/Target/usbd_conf.c ****   USBD_StatusTypeDef usb_status = USBD_OK;
 1160              		.loc 1 260 3 view .LVU262
 261:USB_DEVICE/Target/usbd_conf.c ****   hal_status = HAL_PCD_SetAddress(pdev->pData, dev_addr);
 1161              		.loc 1 261 3 view .LVU263
 261:USB_DEVICE/Target/usbd_conf.c ****   hal_status = HAL_PCD_SetAddress(pdev->pData, dev_addr);
 1162              		.loc 1 261 16 is_stmt 0 view .LVU264
 1163 0002 D0F8C002 		ldr	r0, [r0, #704]
 1164              	.LVL120:
 261:USB_DEVICE/Target/usbd_conf.c ****   hal_status = HAL_PCD_SetAddress(pdev->pData, dev_addr);
 1165              		.loc 1 261 16 view .LVU265
 1166 0006 FFF7FEFF 		bl	HAL_PCD_SetAddress
 1167              	.LVL121:
 262:USB_DEVICE/Target/usbd_conf.c ****   usb_status =  USBD_Get_USB_Status(hal_status);
 1168              		.loc 1 262 3 is_stmt 1 view .LVU266
 262:USB_DEVICE/Target/usbd_conf.c ****   usb_status =  USBD_Get_USB_Status(hal_status);
 1169              		.loc 1 262 17 is_stmt 0 view .LVU267
 1170 000a FFF7FEFF 		bl	USBD_Get_USB_Status
 1171              	.LVL122:
 263:USB_DEVICE/Target/usbd_conf.c ****   return usb_status;
 1172              		.loc 1 263 3 is_stmt 1 view .LVU268
 264:USB_DEVICE/Target/usbd_conf.c **** }
 1173              		.loc 1 264 1 is_stmt 0 view .LVU269
 1174 000e 08BD     		pop	{r3, pc}
 1175              		.cfi_endproc
 1176              	.LFE156:
ARM GAS  C:\Temp\ccW5xNH5.s 			page 31


 1178              		.section	.text.USBD_LL_Transmit,"ax",%progbits
 1179              		.align	1
 1180              		.global	USBD_LL_Transmit
 1181              		.syntax unified
 1182              		.thumb
 1183              		.thumb_func
 1185              	USBD_LL_Transmit:
 1186              	.LVL123:
 1187              	.LFB157:
 267:USB_DEVICE/Target/usbd_conf.c **** {
 1188              		.loc 1 267 1 is_stmt 1 view -0
 1189              		.cfi_startproc
 1190              		@ args = 0, pretend = 0, frame = 0
 1191              		@ frame_needed = 0, uses_anonymous_args = 0
 267:USB_DEVICE/Target/usbd_conf.c **** {
 1192              		.loc 1 267 1 is_stmt 0 view .LVU271
 1193 0000 08B5     		push	{r3, lr}
 1194              	.LCFI26:
 1195              		.cfi_def_cfa_offset 8
 1196              		.cfi_offset 3, -8
 1197              		.cfi_offset 14, -4
 268:USB_DEVICE/Target/usbd_conf.c ****   HAL_StatusTypeDef hal_status = HAL_OK;
 1198              		.loc 1 268 3 is_stmt 1 view .LVU272
 1199              	.LVL124:
 269:USB_DEVICE/Target/usbd_conf.c ****   USBD_StatusTypeDef usb_status = USBD_OK;
 1200              		.loc 1 269 3 view .LVU273
 270:USB_DEVICE/Target/usbd_conf.c ****   hal_status = HAL_PCD_EP_Transmit(pdev->pData, ep_addr, pbuf, size);
 1201              		.loc 1 270 3 view .LVU274
 270:USB_DEVICE/Target/usbd_conf.c ****   hal_status = HAL_PCD_EP_Transmit(pdev->pData, ep_addr, pbuf, size);
 1202              		.loc 1 270 16 is_stmt 0 view .LVU275
 1203 0002 D0F8C002 		ldr	r0, [r0, #704]
 1204              	.LVL125:
 270:USB_DEVICE/Target/usbd_conf.c ****   hal_status = HAL_PCD_EP_Transmit(pdev->pData, ep_addr, pbuf, size);
 1205              		.loc 1 270 16 view .LVU276
 1206 0006 FFF7FEFF 		bl	HAL_PCD_EP_Transmit
 1207              	.LVL126:
 271:USB_DEVICE/Target/usbd_conf.c ****   usb_status =  USBD_Get_USB_Status(hal_status);
 1208              		.loc 1 271 3 is_stmt 1 view .LVU277
 271:USB_DEVICE/Target/usbd_conf.c ****   usb_status =  USBD_Get_USB_Status(hal_status);
 1209              		.loc 1 271 17 is_stmt 0 view .LVU278
 1210 000a FFF7FEFF 		bl	USBD_Get_USB_Status
 1211              	.LVL127:
 272:USB_DEVICE/Target/usbd_conf.c ****   return usb_status;
 1212              		.loc 1 272 3 is_stmt 1 view .LVU279
 273:USB_DEVICE/Target/usbd_conf.c **** }
 1213              		.loc 1 273 1 is_stmt 0 view .LVU280
 1214 000e 08BD     		pop	{r3, pc}
 1215              		.cfi_endproc
 1216              	.LFE157:
 1218              		.section	.text.USBD_LL_PrepareReceive,"ax",%progbits
 1219              		.align	1
 1220              		.global	USBD_LL_PrepareReceive
 1221              		.syntax unified
 1222              		.thumb
 1223              		.thumb_func
 1225              	USBD_LL_PrepareReceive:
 1226              	.LVL128:
ARM GAS  C:\Temp\ccW5xNH5.s 			page 32


 1227              	.LFB158:
 276:USB_DEVICE/Target/usbd_conf.c **** {
 1228              		.loc 1 276 1 is_stmt 1 view -0
 1229              		.cfi_startproc
 1230              		@ args = 0, pretend = 0, frame = 0
 1231              		@ frame_needed = 0, uses_anonymous_args = 0
 276:USB_DEVICE/Target/usbd_conf.c **** {
 1232              		.loc 1 276 1 is_stmt 0 view .LVU282
 1233 0000 08B5     		push	{r3, lr}
 1234              	.LCFI27:
 1235              		.cfi_def_cfa_offset 8
 1236              		.cfi_offset 3, -8
 1237              		.cfi_offset 14, -4
 277:USB_DEVICE/Target/usbd_conf.c ****   HAL_StatusTypeDef hal_status = HAL_OK;
 1238              		.loc 1 277 3 is_stmt 1 view .LVU283
 1239              	.LVL129:
 278:USB_DEVICE/Target/usbd_conf.c ****   USBD_StatusTypeDef usb_status = USBD_OK;
 1240              		.loc 1 278 3 view .LVU284
 279:USB_DEVICE/Target/usbd_conf.c ****   hal_status = HAL_PCD_EP_Receive(pdev->pData, ep_addr, pbuf, size);
 1241              		.loc 1 279 3 view .LVU285
 279:USB_DEVICE/Target/usbd_conf.c ****   hal_status = HAL_PCD_EP_Receive(pdev->pData, ep_addr, pbuf, size);
 1242              		.loc 1 279 16 is_stmt 0 view .LVU286
 1243 0002 D0F8C002 		ldr	r0, [r0, #704]
 1244              	.LVL130:
 279:USB_DEVICE/Target/usbd_conf.c ****   hal_status = HAL_PCD_EP_Receive(pdev->pData, ep_addr, pbuf, size);
 1245              		.loc 1 279 16 view .LVU287
 1246 0006 FFF7FEFF 		bl	HAL_PCD_EP_Receive
 1247              	.LVL131:
 280:USB_DEVICE/Target/usbd_conf.c ****   usb_status =  USBD_Get_USB_Status(hal_status);
 1248              		.loc 1 280 3 is_stmt 1 view .LVU288
 280:USB_DEVICE/Target/usbd_conf.c ****   usb_status =  USBD_Get_USB_Status(hal_status);
 1249              		.loc 1 280 17 is_stmt 0 view .LVU289
 1250 000a FFF7FEFF 		bl	USBD_Get_USB_Status
 1251              	.LVL132:
 281:USB_DEVICE/Target/usbd_conf.c ****   return usb_status;
 1252              		.loc 1 281 3 is_stmt 1 view .LVU290
 282:USB_DEVICE/Target/usbd_conf.c **** }
 1253              		.loc 1 282 1 is_stmt 0 view .LVU291
 1254 000e 08BD     		pop	{r3, pc}
 1255              		.cfi_endproc
 1256              	.LFE158:
 1258              		.section	.text.USBD_LL_GetRxDataSize,"ax",%progbits
 1259              		.align	1
 1260              		.global	USBD_LL_GetRxDataSize
 1261              		.syntax unified
 1262              		.thumb
 1263              		.thumb_func
 1265              	USBD_LL_GetRxDataSize:
 1266              	.LVL133:
 1267              	.LFB159:
 285:USB_DEVICE/Target/usbd_conf.c **** {
 1268              		.loc 1 285 1 is_stmt 1 view -0
 1269              		.cfi_startproc
 1270              		@ args = 0, pretend = 0, frame = 0
 1271              		@ frame_needed = 0, uses_anonymous_args = 0
 285:USB_DEVICE/Target/usbd_conf.c **** {
 1272              		.loc 1 285 1 is_stmt 0 view .LVU293
ARM GAS  C:\Temp\ccW5xNH5.s 			page 33


 1273 0000 08B5     		push	{r3, lr}
 1274              	.LCFI28:
 1275              		.cfi_def_cfa_offset 8
 1276              		.cfi_offset 3, -8
 1277              		.cfi_offset 14, -4
 286:USB_DEVICE/Target/usbd_conf.c ****   return HAL_PCD_EP_GetRxCount((PCD_HandleTypeDef*) pdev->pData, ep_addr);
 1278              		.loc 1 286 3 is_stmt 1 view .LVU294
 286:USB_DEVICE/Target/usbd_conf.c ****   return HAL_PCD_EP_GetRxCount((PCD_HandleTypeDef*) pdev->pData, ep_addr);
 1279              		.loc 1 286 10 is_stmt 0 view .LVU295
 1280 0002 D0F8C002 		ldr	r0, [r0, #704]
 1281              	.LVL134:
 286:USB_DEVICE/Target/usbd_conf.c ****   return HAL_PCD_EP_GetRxCount((PCD_HandleTypeDef*) pdev->pData, ep_addr);
 1282              		.loc 1 286 10 view .LVU296
 1283 0006 FFF7FEFF 		bl	HAL_PCD_EP_GetRxCount
 1284              	.LVL135:
 287:USB_DEVICE/Target/usbd_conf.c **** }
 1285              		.loc 1 287 1 view .LVU297
 1286 000a 08BD     		pop	{r3, pc}
 1287              		.cfi_endproc
 1288              	.LFE159:
 1290              		.section	.text.USBD_LL_Delay,"ax",%progbits
 1291              		.align	1
 1292              		.global	USBD_LL_Delay
 1293              		.syntax unified
 1294              		.thumb
 1295              		.thumb_func
 1297              	USBD_LL_Delay:
 1298              	.LVL136:
 1299              	.LFB160:
 290:USB_DEVICE/Target/usbd_conf.c **** {
 1300              		.loc 1 290 1 is_stmt 1 view -0
 1301              		.cfi_startproc
 1302              		@ args = 0, pretend = 0, frame = 0
 1303              		@ frame_needed = 0, uses_anonymous_args = 0
 290:USB_DEVICE/Target/usbd_conf.c **** {
 1304              		.loc 1 290 1 is_stmt 0 view .LVU299
 1305 0000 08B5     		push	{r3, lr}
 1306              	.LCFI29:
 1307              		.cfi_def_cfa_offset 8
 1308              		.cfi_offset 3, -8
 1309              		.cfi_offset 14, -4
 291:USB_DEVICE/Target/usbd_conf.c ****   HAL_Delay(Delay);
 1310              		.loc 1 291 3 is_stmt 1 view .LVU300
 1311 0002 FFF7FEFF 		bl	HAL_Delay
 1312              	.LVL137:
 292:USB_DEVICE/Target/usbd_conf.c **** }
 1313              		.loc 1 292 1 is_stmt 0 view .LVU301
 1314 0006 08BD     		pop	{r3, pc}
 1315              		.cfi_endproc
 1316              	.LFE160:
 1318              		.section	.text.USBD_static_malloc,"ax",%progbits
 1319              		.align	1
 1320              		.global	USBD_static_malloc
 1321              		.syntax unified
 1322              		.thumb
 1323              		.thumb_func
 1325              	USBD_static_malloc:
ARM GAS  C:\Temp\ccW5xNH5.s 			page 34


 1326              	.LVL138:
 1327              	.LFB161:
 295:USB_DEVICE/Target/usbd_conf.c **** {
 1328              		.loc 1 295 1 is_stmt 1 view -0
 1329              		.cfi_startproc
 1330              		@ args = 0, pretend = 0, frame = 0
 1331              		@ frame_needed = 0, uses_anonymous_args = 0
 1332              		@ link register save eliminated.
 296:USB_DEVICE/Target/usbd_conf.c ****   static uint32_t mem[(sizeof(USBD_HID_HandleTypeDef)/4)+1];
 1333              		.loc 1 296 3 view .LVU303
 297:USB_DEVICE/Target/usbd_conf.c ****   return mem;
 1334              		.loc 1 297 3 view .LVU304
 298:USB_DEVICE/Target/usbd_conf.c **** }
 1335              		.loc 1 298 1 is_stmt 0 view .LVU305
 1336 0000 0048     		ldr	r0, .L83
 1337              	.LVL139:
 298:USB_DEVICE/Target/usbd_conf.c **** }
 1338              		.loc 1 298 1 view .LVU306
 1339 0002 7047     		bx	lr
 1340              	.L84:
 1341              		.align	2
 1342              	.L83:
 1343 0004 00000000 		.word	mem.0
 1344              		.cfi_endproc
 1345              	.LFE161:
 1347              		.section	.text.USBD_static_free,"ax",%progbits
 1348              		.align	1
 1349              		.global	USBD_static_free
 1350              		.syntax unified
 1351              		.thumb
 1352              		.thumb_func
 1354              	USBD_static_free:
 1355              	.LVL140:
 1356              	.LFB162:
 301:USB_DEVICE/Target/usbd_conf.c **** {
 1357              		.loc 1 301 1 is_stmt 1 view -0
 1358              		.cfi_startproc
 1359              		@ args = 0, pretend = 0, frame = 0
 1360              		@ frame_needed = 0, uses_anonymous_args = 0
 1361              		@ link register save eliminated.
 302:USB_DEVICE/Target/usbd_conf.c **** }
 1362              		.loc 1 302 1 view .LVU308
 1363 0000 7047     		bx	lr
 1364              		.cfi_endproc
 1365              	.LFE162:
 1367              		.section	.text.HAL_PCDEx_SetConnectionState,"ax",%progbits
 1368              		.align	1
 1369              		.global	HAL_PCDEx_SetConnectionState
 1370              		.syntax unified
 1371              		.thumb
 1372              		.thumb_func
 1374              	HAL_PCDEx_SetConnectionState:
 1375              	.LVL141:
 1376              	.LFB163:
 305:USB_DEVICE/Target/usbd_conf.c **** {
 1377              		.loc 1 305 1 view -0
 1378              		.cfi_startproc
ARM GAS  C:\Temp\ccW5xNH5.s 			page 35


 1379              		@ args = 0, pretend = 0, frame = 0
 1380              		@ frame_needed = 0, uses_anonymous_args = 0
 1381              		@ link register save eliminated.
 306:USB_DEVICE/Target/usbd_conf.c **** }
 1382              		.loc 1 306 1 view .LVU310
 1383 0000 7047     		bx	lr
 1384              		.cfi_endproc
 1385              	.LFE163:
 1387              		.section	.bss.mem.0,"aw",%nobits
 1388              		.align	2
 1391              	mem.0:
 1392 0000 00000000 		.space	20
 1392      00000000 
 1392      00000000 
 1392      00000000 
 1392      00000000 
 1393              		.global	hpcd_USB_FS
 1394              		.section	.bss.hpcd_USB_FS,"aw",%nobits
 1395              		.align	2
 1398              	hpcd_USB_FS:
 1399 0000 00000000 		.space	724
 1399      00000000 
 1399      00000000 
 1399      00000000 
 1399      00000000 
 1400              		.text
 1401              	.Letext0:
 1402              		.file 2 "Drivers/CMSIS/Device/ST/STM32F3xx/Include/stm32f303xc.h"
 1403              		.file 3 "C:/TOOL/arm-none-eabi/include/machine/_default_types.h"
 1404              		.file 4 "C:/TOOL/arm-none-eabi/include/sys/_stdint.h"
 1405              		.file 5 "Drivers/CMSIS/Include/core_cm4.h"
 1406              		.file 6 "Drivers/CMSIS/Device/ST/STM32F3xx/Include/stm32f3xx.h"
 1407              		.file 7 "Drivers/STM32F3xx_HAL_Driver/Inc/stm32f3xx_hal_def.h"
 1408              		.file 8 "Drivers/STM32F3xx_HAL_Driver/Inc/stm32f3xx_hal_gpio.h"
 1409              		.file 9 "Drivers/STM32F3xx_HAL_Driver/Inc/stm32f3xx_ll_usb.h"
 1410              		.file 10 "Drivers/STM32F3xx_HAL_Driver/Inc/stm32f3xx_hal_pcd.h"
 1411              		.file 11 "Middlewares/ST/STM32_USB_Device_Library/Core/Inc/usbd_def.h"
 1412              		.file 12 "Drivers/STM32F3xx_HAL_Driver/Inc/stm32f3xx_hal_pcd_ex.h"
 1413              		.file 13 "Middlewares/ST/STM32_USB_Device_Library/Core/Inc/usbd_core.h"
 1414              		.file 14 "Drivers/STM32F3xx_HAL_Driver/Inc/stm32f3xx_hal.h"
 1415              		.file 15 "Drivers/STM32F3xx_HAL_Driver/Inc/stm32f3xx_hal_cortex.h"
ARM GAS  C:\Temp\ccW5xNH5.s 			page 36

